ARM GAS  C:\Users\Lamp\AppData\Local\Temp\cc5jtw1v.s 			page 1


   1              		.cpu cortex-m4
   2              		.arch armv7e-m
   3              		.fpu fpv4-sp-d16
   4              		.eabi_attribute 27, 1
   5              		.eabi_attribute 28, 1
   6              		.eabi_attribute 20, 1
   7              		.eabi_attribute 21, 1
   8              		.eabi_attribute 23, 3
   9              		.eabi_attribute 24, 1
  10              		.eabi_attribute 25, 1
  11              		.eabi_attribute 26, 1
  12              		.eabi_attribute 30, 1
  13              		.eabi_attribute 34, 1
  14              		.eabi_attribute 18, 4
  15              		.file	"arm_mat_cmplx_mult_f32.c"
  16              		.text
  17              	.Ltext0:
  18              		.cfi_sections	.debug_frame
  19              		.file 1 "Drivers/CMSIS/DSP/Source/MatrixFunctions/arm_mat_cmplx_mult_f32.c"
  20              		.section	.text.arm_mat_cmplx_mult_f32,"ax",%progbits
  21              		.align	1
  22              		.global	arm_mat_cmplx_mult_f32
  23              		.syntax unified
  24              		.thumb
  25              		.thumb_func
  27              	arm_mat_cmplx_mult_f32:
  28              	.LVL0:
  29              	.LFB139:
   1:Drivers/CMSIS/DSP/Source/MatrixFunctions/arm_mat_cmplx_mult_f32.c **** /* ----------------------------------------------------------------------
   2:Drivers/CMSIS/DSP/Source/MatrixFunctions/arm_mat_cmplx_mult_f32.c ****  * Project:      CMSIS DSP Library
   3:Drivers/CMSIS/DSP/Source/MatrixFunctions/arm_mat_cmplx_mult_f32.c ****  * Title:        arm_mat_cmplx_mult_f32.c
   4:Drivers/CMSIS/DSP/Source/MatrixFunctions/arm_mat_cmplx_mult_f32.c ****  * Description:  Floating-point matrix multiplication
   5:Drivers/CMSIS/DSP/Source/MatrixFunctions/arm_mat_cmplx_mult_f32.c ****  *
   6:Drivers/CMSIS/DSP/Source/MatrixFunctions/arm_mat_cmplx_mult_f32.c ****  * $Date:        27. January 2017
   7:Drivers/CMSIS/DSP/Source/MatrixFunctions/arm_mat_cmplx_mult_f32.c ****  * $Revision:    V.1.5.1
   8:Drivers/CMSIS/DSP/Source/MatrixFunctions/arm_mat_cmplx_mult_f32.c ****  *
   9:Drivers/CMSIS/DSP/Source/MatrixFunctions/arm_mat_cmplx_mult_f32.c ****  * Target Processor: Cortex-M cores
  10:Drivers/CMSIS/DSP/Source/MatrixFunctions/arm_mat_cmplx_mult_f32.c ****  * -------------------------------------------------------------------- */
  11:Drivers/CMSIS/DSP/Source/MatrixFunctions/arm_mat_cmplx_mult_f32.c **** /*
  12:Drivers/CMSIS/DSP/Source/MatrixFunctions/arm_mat_cmplx_mult_f32.c ****  * Copyright (C) 2010-2017 ARM Limited or its affiliates. All rights reserved.
  13:Drivers/CMSIS/DSP/Source/MatrixFunctions/arm_mat_cmplx_mult_f32.c ****  *
  14:Drivers/CMSIS/DSP/Source/MatrixFunctions/arm_mat_cmplx_mult_f32.c ****  * SPDX-License-Identifier: Apache-2.0
  15:Drivers/CMSIS/DSP/Source/MatrixFunctions/arm_mat_cmplx_mult_f32.c ****  *
  16:Drivers/CMSIS/DSP/Source/MatrixFunctions/arm_mat_cmplx_mult_f32.c ****  * Licensed under the Apache License, Version 2.0 (the License); you may
  17:Drivers/CMSIS/DSP/Source/MatrixFunctions/arm_mat_cmplx_mult_f32.c ****  * not use this file except in compliance with the License.
  18:Drivers/CMSIS/DSP/Source/MatrixFunctions/arm_mat_cmplx_mult_f32.c ****  * You may obtain a copy of the License at
  19:Drivers/CMSIS/DSP/Source/MatrixFunctions/arm_mat_cmplx_mult_f32.c ****  *
  20:Drivers/CMSIS/DSP/Source/MatrixFunctions/arm_mat_cmplx_mult_f32.c ****  * www.apache.org/licenses/LICENSE-2.0
  21:Drivers/CMSIS/DSP/Source/MatrixFunctions/arm_mat_cmplx_mult_f32.c ****  *
  22:Drivers/CMSIS/DSP/Source/MatrixFunctions/arm_mat_cmplx_mult_f32.c ****  * Unless required by applicable law or agreed to in writing, software
  23:Drivers/CMSIS/DSP/Source/MatrixFunctions/arm_mat_cmplx_mult_f32.c ****  * distributed under the License is distributed on an AS IS BASIS, WITHOUT
  24:Drivers/CMSIS/DSP/Source/MatrixFunctions/arm_mat_cmplx_mult_f32.c ****  * WARRANTIES OR CONDITIONS OF ANY KIND, either express or implied.
  25:Drivers/CMSIS/DSP/Source/MatrixFunctions/arm_mat_cmplx_mult_f32.c ****  * See the License for the specific language governing permissions and
  26:Drivers/CMSIS/DSP/Source/MatrixFunctions/arm_mat_cmplx_mult_f32.c ****  * limitations under the License.
  27:Drivers/CMSIS/DSP/Source/MatrixFunctions/arm_mat_cmplx_mult_f32.c ****  */
  28:Drivers/CMSIS/DSP/Source/MatrixFunctions/arm_mat_cmplx_mult_f32.c **** 
  29:Drivers/CMSIS/DSP/Source/MatrixFunctions/arm_mat_cmplx_mult_f32.c **** #include "arm_math.h"
ARM GAS  C:\Users\Lamp\AppData\Local\Temp\cc5jtw1v.s 			page 2


  30:Drivers/CMSIS/DSP/Source/MatrixFunctions/arm_mat_cmplx_mult_f32.c **** 
  31:Drivers/CMSIS/DSP/Source/MatrixFunctions/arm_mat_cmplx_mult_f32.c **** /**
  32:Drivers/CMSIS/DSP/Source/MatrixFunctions/arm_mat_cmplx_mult_f32.c ****  * @ingroup groupMatrix
  33:Drivers/CMSIS/DSP/Source/MatrixFunctions/arm_mat_cmplx_mult_f32.c ****  */
  34:Drivers/CMSIS/DSP/Source/MatrixFunctions/arm_mat_cmplx_mult_f32.c **** 
  35:Drivers/CMSIS/DSP/Source/MatrixFunctions/arm_mat_cmplx_mult_f32.c **** /**
  36:Drivers/CMSIS/DSP/Source/MatrixFunctions/arm_mat_cmplx_mult_f32.c ****  * @defgroup CmplxMatrixMult  Complex Matrix Multiplication
  37:Drivers/CMSIS/DSP/Source/MatrixFunctions/arm_mat_cmplx_mult_f32.c ****  *
  38:Drivers/CMSIS/DSP/Source/MatrixFunctions/arm_mat_cmplx_mult_f32.c ****  * Complex Matrix multiplication is only defined if the number of columns of the
  39:Drivers/CMSIS/DSP/Source/MatrixFunctions/arm_mat_cmplx_mult_f32.c ****  * first matrix equals the number of rows of the second matrix.
  40:Drivers/CMSIS/DSP/Source/MatrixFunctions/arm_mat_cmplx_mult_f32.c ****  * Multiplying an <code>M x N</code> matrix with an <code>N x P</code> matrix results
  41:Drivers/CMSIS/DSP/Source/MatrixFunctions/arm_mat_cmplx_mult_f32.c ****  * in an <code>M x P</code> matrix.
  42:Drivers/CMSIS/DSP/Source/MatrixFunctions/arm_mat_cmplx_mult_f32.c ****  * When matrix size checking is enabled, the functions check: (1) that the inner dimensions of
  43:Drivers/CMSIS/DSP/Source/MatrixFunctions/arm_mat_cmplx_mult_f32.c ****  * <code>pSrcA</code> and <code>pSrcB</code> are equal; and (2) that the size of the output
  44:Drivers/CMSIS/DSP/Source/MatrixFunctions/arm_mat_cmplx_mult_f32.c ****  * matrix equals the outer dimensions of <code>pSrcA</code> and <code>pSrcB</code>.
  45:Drivers/CMSIS/DSP/Source/MatrixFunctions/arm_mat_cmplx_mult_f32.c ****  */
  46:Drivers/CMSIS/DSP/Source/MatrixFunctions/arm_mat_cmplx_mult_f32.c **** 
  47:Drivers/CMSIS/DSP/Source/MatrixFunctions/arm_mat_cmplx_mult_f32.c **** 
  48:Drivers/CMSIS/DSP/Source/MatrixFunctions/arm_mat_cmplx_mult_f32.c **** /**
  49:Drivers/CMSIS/DSP/Source/MatrixFunctions/arm_mat_cmplx_mult_f32.c ****  * @addtogroup CmplxMatrixMult
  50:Drivers/CMSIS/DSP/Source/MatrixFunctions/arm_mat_cmplx_mult_f32.c ****  * @{
  51:Drivers/CMSIS/DSP/Source/MatrixFunctions/arm_mat_cmplx_mult_f32.c ****  */
  52:Drivers/CMSIS/DSP/Source/MatrixFunctions/arm_mat_cmplx_mult_f32.c **** 
  53:Drivers/CMSIS/DSP/Source/MatrixFunctions/arm_mat_cmplx_mult_f32.c **** /**
  54:Drivers/CMSIS/DSP/Source/MatrixFunctions/arm_mat_cmplx_mult_f32.c ****  * @brief Floating-point Complex matrix multiplication.
  55:Drivers/CMSIS/DSP/Source/MatrixFunctions/arm_mat_cmplx_mult_f32.c ****  * @param[in]       *pSrcA points to the first input complex matrix structure
  56:Drivers/CMSIS/DSP/Source/MatrixFunctions/arm_mat_cmplx_mult_f32.c ****  * @param[in]       *pSrcB points to the second input complex matrix structure
  57:Drivers/CMSIS/DSP/Source/MatrixFunctions/arm_mat_cmplx_mult_f32.c ****  * @param[out]      *pDst points to output complex matrix structure
  58:Drivers/CMSIS/DSP/Source/MatrixFunctions/arm_mat_cmplx_mult_f32.c ****  * @return     		The function returns either
  59:Drivers/CMSIS/DSP/Source/MatrixFunctions/arm_mat_cmplx_mult_f32.c ****  * <code>ARM_MATH_SIZE_MISMATCH</code> or <code>ARM_MATH_SUCCESS</code> based on the outcome of siz
  60:Drivers/CMSIS/DSP/Source/MatrixFunctions/arm_mat_cmplx_mult_f32.c ****  */
  61:Drivers/CMSIS/DSP/Source/MatrixFunctions/arm_mat_cmplx_mult_f32.c **** 
  62:Drivers/CMSIS/DSP/Source/MatrixFunctions/arm_mat_cmplx_mult_f32.c **** arm_status arm_mat_cmplx_mult_f32(
  63:Drivers/CMSIS/DSP/Source/MatrixFunctions/arm_mat_cmplx_mult_f32.c ****   const arm_matrix_instance_f32 * pSrcA,
  64:Drivers/CMSIS/DSP/Source/MatrixFunctions/arm_mat_cmplx_mult_f32.c ****   const arm_matrix_instance_f32 * pSrcB,
  65:Drivers/CMSIS/DSP/Source/MatrixFunctions/arm_mat_cmplx_mult_f32.c ****   arm_matrix_instance_f32 * pDst)
  66:Drivers/CMSIS/DSP/Source/MatrixFunctions/arm_mat_cmplx_mult_f32.c **** {
  30              		.loc 1 66 1 view -0
  31              		.cfi_startproc
  32              		@ args = 0, pretend = 0, frame = 0
  33              		@ frame_needed = 0, uses_anonymous_args = 0
  34              		.loc 1 66 1 is_stmt 0 view .LVU1
  35 0000 2DE9F047 		push	{r4, r5, r6, r7, r8, r9, r10, lr}
  36              	.LCFI0:
  37              		.cfi_def_cfa_offset 32
  38              		.cfi_offset 4, -32
  39              		.cfi_offset 5, -28
  40              		.cfi_offset 6, -24
  41              		.cfi_offset 7, -20
  42              		.cfi_offset 8, -16
  43              		.cfi_offset 9, -12
  44              		.cfi_offset 10, -8
  45              		.cfi_offset 14, -4
  46 0004 0446     		mov	r4, r0
  47 0006 1346     		mov	r3, r2
  67:Drivers/CMSIS/DSP/Source/MatrixFunctions/arm_mat_cmplx_mult_f32.c ****   float32_t *pIn1 = pSrcA->pData;                /* input data matrix pointer A */
  48              		.loc 1 67 3 is_stmt 1 view .LVU2
ARM GAS  C:\Users\Lamp\AppData\Local\Temp\cc5jtw1v.s 			page 3


  49              		.loc 1 67 14 is_stmt 0 view .LVU3
  50 0008 4568     		ldr	r5, [r0, #4]
  51              	.LVL1:
  68:Drivers/CMSIS/DSP/Source/MatrixFunctions/arm_mat_cmplx_mult_f32.c ****   float32_t *pIn2 = pSrcB->pData;                /* input data matrix pointer B */
  52              		.loc 1 68 3 is_stmt 1 view .LVU4
  69:Drivers/CMSIS/DSP/Source/MatrixFunctions/arm_mat_cmplx_mult_f32.c ****   float32_t *pInA = pSrcA->pData;                /* input data matrix pointer A  */
  53              		.loc 1 69 3 view .LVU5
  70:Drivers/CMSIS/DSP/Source/MatrixFunctions/arm_mat_cmplx_mult_f32.c ****   float32_t *pOut = pDst->pData;                 /* output data matrix pointer */
  54              		.loc 1 70 3 view .LVU6
  55              		.loc 1 70 14 is_stmt 0 view .LVU7
  56 000a D2F80490 		ldr	r9, [r2, #4]
  57              	.LVL2:
  71:Drivers/CMSIS/DSP/Source/MatrixFunctions/arm_mat_cmplx_mult_f32.c ****   float32_t *px;                                 /* Temporary output data matrix pointer */
  58              		.loc 1 71 3 is_stmt 1 view .LVU8
  72:Drivers/CMSIS/DSP/Source/MatrixFunctions/arm_mat_cmplx_mult_f32.c ****   uint16_t numRowsA = pSrcA->numRows;            /* number of rows of input matrix A */
  59              		.loc 1 72 3 view .LVU9
  60              		.loc 1 72 12 is_stmt 0 view .LVU10
  61 000e 0788     		ldrh	r7, [r0]
  62              	.LVL3:
  73:Drivers/CMSIS/DSP/Source/MatrixFunctions/arm_mat_cmplx_mult_f32.c ****   uint16_t numColsB = pSrcB->numCols;            /* number of columns of input matrix B */
  63              		.loc 1 73 3 is_stmt 1 view .LVU11
  64              		.loc 1 73 12 is_stmt 0 view .LVU12
  65 0010 4888     		ldrh	r0, [r1, #2]
  66              	.LVL4:
  74:Drivers/CMSIS/DSP/Source/MatrixFunctions/arm_mat_cmplx_mult_f32.c ****   uint16_t numColsA = pSrcA->numCols;            /* number of columns of input matrix A */
  67              		.loc 1 74 3 is_stmt 1 view .LVU13
  68              		.loc 1 74 12 is_stmt 0 view .LVU14
  69 0012 B4F802E0 		ldrh	lr, [r4, #2]
  70              	.LVL5:
  75:Drivers/CMSIS/DSP/Source/MatrixFunctions/arm_mat_cmplx_mult_f32.c ****   float32_t sumReal1, sumImag1;                  /* accumulator */
  71              		.loc 1 75 3 is_stmt 1 view .LVU15
  76:Drivers/CMSIS/DSP/Source/MatrixFunctions/arm_mat_cmplx_mult_f32.c ****   float32_t a0, b0, c0, d0;
  72              		.loc 1 76 3 view .LVU16
  77:Drivers/CMSIS/DSP/Source/MatrixFunctions/arm_mat_cmplx_mult_f32.c ****   float32_t a1, b1, c1, d1;
  73              		.loc 1 77 3 view .LVU17
  78:Drivers/CMSIS/DSP/Source/MatrixFunctions/arm_mat_cmplx_mult_f32.c ****   float32_t sumReal2, sumImag2;                  /* accumulator */
  74              		.loc 1 78 3 view .LVU18
  79:Drivers/CMSIS/DSP/Source/MatrixFunctions/arm_mat_cmplx_mult_f32.c **** 
  80:Drivers/CMSIS/DSP/Source/MatrixFunctions/arm_mat_cmplx_mult_f32.c **** 
  81:Drivers/CMSIS/DSP/Source/MatrixFunctions/arm_mat_cmplx_mult_f32.c ****   /* Run the below code for Cortex-M4 and Cortex-M3 */
  82:Drivers/CMSIS/DSP/Source/MatrixFunctions/arm_mat_cmplx_mult_f32.c **** 
  83:Drivers/CMSIS/DSP/Source/MatrixFunctions/arm_mat_cmplx_mult_f32.c ****   uint16_t col, i = 0U, j, row = numRowsA, colCnt;      /* loop counters */
  75              		.loc 1 83 3 view .LVU19
  84:Drivers/CMSIS/DSP/Source/MatrixFunctions/arm_mat_cmplx_mult_f32.c ****   arm_status status;                             /* status of matrix multiplication */
  76              		.loc 1 84 3 view .LVU20
  85:Drivers/CMSIS/DSP/Source/MatrixFunctions/arm_mat_cmplx_mult_f32.c **** 
  86:Drivers/CMSIS/DSP/Source/MatrixFunctions/arm_mat_cmplx_mult_f32.c **** #ifdef ARM_MATH_MATRIX_CHECK
  87:Drivers/CMSIS/DSP/Source/MatrixFunctions/arm_mat_cmplx_mult_f32.c **** 
  88:Drivers/CMSIS/DSP/Source/MatrixFunctions/arm_mat_cmplx_mult_f32.c **** 
  89:Drivers/CMSIS/DSP/Source/MatrixFunctions/arm_mat_cmplx_mult_f32.c ****   /* Check for matrix mismatch condition */
  90:Drivers/CMSIS/DSP/Source/MatrixFunctions/arm_mat_cmplx_mult_f32.c ****   if ((pSrcA->numCols != pSrcB->numRows) ||
  77              		.loc 1 90 3 view .LVU21
  78              		.loc 1 90 31 is_stmt 0 view .LVU22
  79 0016 0A88     		ldrh	r2, [r1]
  80              	.LVL6:
  81              		.loc 1 90 6 view .LVU23
  82 0018 7245     		cmp	r2, lr
ARM GAS  C:\Users\Lamp\AppData\Local\Temp\cc5jtw1v.s 			page 4


  83 001a 40F0CE80 		bne	.L9
  84 001e 0E46     		mov	r6, r1
  91:Drivers/CMSIS/DSP/Source/MatrixFunctions/arm_mat_cmplx_mult_f32.c ****      (pSrcA->numRows != pDst->numRows) || (pSrcB->numCols != pDst->numCols))
  85              		.loc 1 91 29 discriminator 1 view .LVU24
  86 0020 1A88     		ldrh	r2, [r3]
  90:Drivers/CMSIS/DSP/Source/MatrixFunctions/arm_mat_cmplx_mult_f32.c ****      (pSrcA->numRows != pDst->numRows) || (pSrcB->numCols != pDst->numCols))
  87              		.loc 1 90 42 discriminator 1 view .LVU25
  88 0022 BA42     		cmp	r2, r7
  89 0024 40F0CC80 		bne	.L10
  90              		.loc 1 91 66 view .LVU26
  91 0028 5B88     		ldrh	r3, [r3, #2]
  92              	.LVL7:
  93              		.loc 1 91 40 view .LVU27
  94 002a 8342     		cmp	r3, r0
  95 002c 40F0CB80 		bne	.L11
  83:Drivers/CMSIS/DSP/Source/MatrixFunctions/arm_mat_cmplx_mult_f32.c ****   arm_status status;                             /* status of matrix multiplication */
  96              		.loc 1 83 17 view .LVU28
  97 0030 4FF00008 		mov	r8, #0
  98 0034 B7E0     		b	.L8
  99              	.LVL8:
 100              	.L4:
  92:Drivers/CMSIS/DSP/Source/MatrixFunctions/arm_mat_cmplx_mult_f32.c ****   {
  93:Drivers/CMSIS/DSP/Source/MatrixFunctions/arm_mat_cmplx_mult_f32.c **** 
  94:Drivers/CMSIS/DSP/Source/MatrixFunctions/arm_mat_cmplx_mult_f32.c ****     /* Set status as ARM_MATH_SIZE_MISMATCH */
  95:Drivers/CMSIS/DSP/Source/MatrixFunctions/arm_mat_cmplx_mult_f32.c ****     status = ARM_MATH_SIZE_MISMATCH;
  96:Drivers/CMSIS/DSP/Source/MatrixFunctions/arm_mat_cmplx_mult_f32.c ****   }
  97:Drivers/CMSIS/DSP/Source/MatrixFunctions/arm_mat_cmplx_mult_f32.c ****   else
  98:Drivers/CMSIS/DSP/Source/MatrixFunctions/arm_mat_cmplx_mult_f32.c **** #endif /*      #ifdef ARM_MATH_MATRIX_CHECK    */
  99:Drivers/CMSIS/DSP/Source/MatrixFunctions/arm_mat_cmplx_mult_f32.c **** 
 100:Drivers/CMSIS/DSP/Source/MatrixFunctions/arm_mat_cmplx_mult_f32.c ****   {
 101:Drivers/CMSIS/DSP/Source/MatrixFunctions/arm_mat_cmplx_mult_f32.c ****     /* The following loop performs the dot-product of each row in pSrcA with each column in pSrcB *
 102:Drivers/CMSIS/DSP/Source/MatrixFunctions/arm_mat_cmplx_mult_f32.c ****     /* row loop */
 103:Drivers/CMSIS/DSP/Source/MatrixFunctions/arm_mat_cmplx_mult_f32.c ****     do
 104:Drivers/CMSIS/DSP/Source/MatrixFunctions/arm_mat_cmplx_mult_f32.c ****     {
 105:Drivers/CMSIS/DSP/Source/MatrixFunctions/arm_mat_cmplx_mult_f32.c ****       /* Output pointer is set to starting address of the row being processed */
 106:Drivers/CMSIS/DSP/Source/MatrixFunctions/arm_mat_cmplx_mult_f32.c ****       px = pOut + 2 * i;
 107:Drivers/CMSIS/DSP/Source/MatrixFunctions/arm_mat_cmplx_mult_f32.c **** 
 108:Drivers/CMSIS/DSP/Source/MatrixFunctions/arm_mat_cmplx_mult_f32.c ****       /* For every row wise process, the column loop counter is to be initiated */
 109:Drivers/CMSIS/DSP/Source/MatrixFunctions/arm_mat_cmplx_mult_f32.c ****       col = numColsB;
 110:Drivers/CMSIS/DSP/Source/MatrixFunctions/arm_mat_cmplx_mult_f32.c **** 
 111:Drivers/CMSIS/DSP/Source/MatrixFunctions/arm_mat_cmplx_mult_f32.c ****       /* For every row wise process, the pIn2 pointer is set
 112:Drivers/CMSIS/DSP/Source/MatrixFunctions/arm_mat_cmplx_mult_f32.c ****        ** to the starting address of the pSrcB data */
 113:Drivers/CMSIS/DSP/Source/MatrixFunctions/arm_mat_cmplx_mult_f32.c ****       pIn2 = pSrcB->pData;
 114:Drivers/CMSIS/DSP/Source/MatrixFunctions/arm_mat_cmplx_mult_f32.c **** 
 115:Drivers/CMSIS/DSP/Source/MatrixFunctions/arm_mat_cmplx_mult_f32.c ****       j = 0U;
 116:Drivers/CMSIS/DSP/Source/MatrixFunctions/arm_mat_cmplx_mult_f32.c **** 
 117:Drivers/CMSIS/DSP/Source/MatrixFunctions/arm_mat_cmplx_mult_f32.c ****       /* column loop */
 118:Drivers/CMSIS/DSP/Source/MatrixFunctions/arm_mat_cmplx_mult_f32.c ****       do
 119:Drivers/CMSIS/DSP/Source/MatrixFunctions/arm_mat_cmplx_mult_f32.c ****       {
 120:Drivers/CMSIS/DSP/Source/MatrixFunctions/arm_mat_cmplx_mult_f32.c ****         /* Set the variable sum, that acts as accumulator, to zero */
 121:Drivers/CMSIS/DSP/Source/MatrixFunctions/arm_mat_cmplx_mult_f32.c ****         sumReal1 = 0.0f;
 122:Drivers/CMSIS/DSP/Source/MatrixFunctions/arm_mat_cmplx_mult_f32.c ****         sumImag1 = 0.0f;
 123:Drivers/CMSIS/DSP/Source/MatrixFunctions/arm_mat_cmplx_mult_f32.c **** 
 124:Drivers/CMSIS/DSP/Source/MatrixFunctions/arm_mat_cmplx_mult_f32.c ****         sumReal2 = 0.0f;
 125:Drivers/CMSIS/DSP/Source/MatrixFunctions/arm_mat_cmplx_mult_f32.c ****         sumImag2 = 0.0f;
 126:Drivers/CMSIS/DSP/Source/MatrixFunctions/arm_mat_cmplx_mult_f32.c **** 
 127:Drivers/CMSIS/DSP/Source/MatrixFunctions/arm_mat_cmplx_mult_f32.c ****         /* Initiate the pointer pIn1 to point to the starting address of the column being processed
ARM GAS  C:\Users\Lamp\AppData\Local\Temp\cc5jtw1v.s 			page 5


 128:Drivers/CMSIS/DSP/Source/MatrixFunctions/arm_mat_cmplx_mult_f32.c ****         pIn1 = pInA;
 129:Drivers/CMSIS/DSP/Source/MatrixFunctions/arm_mat_cmplx_mult_f32.c **** 
 130:Drivers/CMSIS/DSP/Source/MatrixFunctions/arm_mat_cmplx_mult_f32.c ****         /* Apply loop unrolling and compute 4 MACs simultaneously. */
 131:Drivers/CMSIS/DSP/Source/MatrixFunctions/arm_mat_cmplx_mult_f32.c ****         colCnt = numColsA >> 2;
 132:Drivers/CMSIS/DSP/Source/MatrixFunctions/arm_mat_cmplx_mult_f32.c **** 
 133:Drivers/CMSIS/DSP/Source/MatrixFunctions/arm_mat_cmplx_mult_f32.c ****         /* matrix multiplication        */
 134:Drivers/CMSIS/DSP/Source/MatrixFunctions/arm_mat_cmplx_mult_f32.c ****         while (colCnt > 0U)
 135:Drivers/CMSIS/DSP/Source/MatrixFunctions/arm_mat_cmplx_mult_f32.c ****         {
 136:Drivers/CMSIS/DSP/Source/MatrixFunctions/arm_mat_cmplx_mult_f32.c **** 
 137:Drivers/CMSIS/DSP/Source/MatrixFunctions/arm_mat_cmplx_mult_f32.c ****           /* Reading real part of complex matrix A */
 138:Drivers/CMSIS/DSP/Source/MatrixFunctions/arm_mat_cmplx_mult_f32.c ****           a0 = *pIn1;
 101              		.loc 1 138 11 is_stmt 1 view .LVU29
 102              		.loc 1 138 14 is_stmt 0 view .LVU30
 103 0036 92ED006A 		vldr.32	s12, [r2]
 104              	.LVL9:
 139:Drivers/CMSIS/DSP/Source/MatrixFunctions/arm_mat_cmplx_mult_f32.c **** 
 140:Drivers/CMSIS/DSP/Source/MatrixFunctions/arm_mat_cmplx_mult_f32.c ****           /* Reading real part of complex matrix B */
 141:Drivers/CMSIS/DSP/Source/MatrixFunctions/arm_mat_cmplx_mult_f32.c ****           c0 = *pIn2;
 105              		.loc 1 141 11 is_stmt 1 view .LVU31
 106              		.loc 1 141 14 is_stmt 0 view .LVU32
 107 003a D3ED005A 		vldr.32	s11, [r3]
 108              	.LVL10:
 142:Drivers/CMSIS/DSP/Source/MatrixFunctions/arm_mat_cmplx_mult_f32.c **** 
 143:Drivers/CMSIS/DSP/Source/MatrixFunctions/arm_mat_cmplx_mult_f32.c ****           /* Reading imaginary part of complex matrix A */
 144:Drivers/CMSIS/DSP/Source/MatrixFunctions/arm_mat_cmplx_mult_f32.c ****           b0 = *(pIn1 + 1U);
 109              		.loc 1 144 11 is_stmt 1 view .LVU33
 110              		.loc 1 144 14 is_stmt 0 view .LVU34
 111 003e D2ED014A 		vldr.32	s9, [r2, #4]
 112              	.LVL11:
 145:Drivers/CMSIS/DSP/Source/MatrixFunctions/arm_mat_cmplx_mult_f32.c **** 
 146:Drivers/CMSIS/DSP/Source/MatrixFunctions/arm_mat_cmplx_mult_f32.c ****           /* Reading imaginary part of complex matrix B */
 147:Drivers/CMSIS/DSP/Source/MatrixFunctions/arm_mat_cmplx_mult_f32.c ****           d0 = *(pIn2 + 1U);
 113              		.loc 1 147 11 is_stmt 1 view .LVU35
 114              		.loc 1 147 14 is_stmt 0 view .LVU36
 115 0042 D3ED013A 		vldr.32	s7, [r3, #4]
 116              	.LVL12:
 148:Drivers/CMSIS/DSP/Source/MatrixFunctions/arm_mat_cmplx_mult_f32.c **** 
 149:Drivers/CMSIS/DSP/Source/MatrixFunctions/arm_mat_cmplx_mult_f32.c ****           sumReal1 += a0 * c0;
 117              		.loc 1 149 11 is_stmt 1 view .LVU37
 118              		.loc 1 149 26 is_stmt 0 view .LVU38
 119 0046 26EE254A 		vmul.f32	s8, s12, s11
 120              		.loc 1 149 20 view .LVU39
 121 004a 34EE054A 		vadd.f32	s8, s8, s10
 122              	.LVL13:
 150:Drivers/CMSIS/DSP/Source/MatrixFunctions/arm_mat_cmplx_mult_f32.c ****           sumImag1 += b0 * c0;
 123              		.loc 1 150 11 is_stmt 1 view .LVU40
 124              		.loc 1 150 26 is_stmt 0 view .LVU41
 125 004e 65EEA45A 		vmul.f32	s11, s11, s9
 126              	.LVL14:
 127              		.loc 1 150 20 view .LVU42
 128 0052 75EEA65A 		vadd.f32	s11, s11, s13
 129              	.LVL15:
 151:Drivers/CMSIS/DSP/Source/MatrixFunctions/arm_mat_cmplx_mult_f32.c **** 
 152:Drivers/CMSIS/DSP/Source/MatrixFunctions/arm_mat_cmplx_mult_f32.c ****           pIn1 += 2U;
 130              		.loc 1 152 11 is_stmt 1 view .LVU43
 153:Drivers/CMSIS/DSP/Source/MatrixFunctions/arm_mat_cmplx_mult_f32.c ****           pIn2 += 2 * numColsB;
 131              		.loc 1 153 11 view .LVU44
ARM GAS  C:\Users\Lamp\AppData\Local\Temp\cc5jtw1v.s 			page 6


 132              		.loc 1 153 16 is_stmt 0 view .LVU45
 133 0056 03EBC003 		add	r3, r3, r0, lsl #3
 134              	.LVL16:
 154:Drivers/CMSIS/DSP/Source/MatrixFunctions/arm_mat_cmplx_mult_f32.c **** 
 155:Drivers/CMSIS/DSP/Source/MatrixFunctions/arm_mat_cmplx_mult_f32.c ****           sumReal2 -= b0 * d0;
 135              		.loc 1 155 11 is_stmt 1 view .LVU46
 136              		.loc 1 155 26 is_stmt 0 view .LVU47
 137 005a 64EEA34A 		vmul.f32	s9, s9, s7
 138              	.LVL17:
 139              		.loc 1 155 20 view .LVU48
 140 005e 77EEE47A 		vsub.f32	s15, s15, s9
 141              	.LVL18:
 156:Drivers/CMSIS/DSP/Source/MatrixFunctions/arm_mat_cmplx_mult_f32.c ****           sumImag2 += a0 * d0;
 142              		.loc 1 156 11 is_stmt 1 view .LVU49
 143              		.loc 1 156 26 is_stmt 0 view .LVU50
 144 0062 26EE236A 		vmul.f32	s12, s12, s7
 145              	.LVL19:
 146              		.loc 1 156 20 view .LVU51
 147 0066 36EE076A 		vadd.f32	s12, s12, s14
 148              	.LVL20:
 157:Drivers/CMSIS/DSP/Source/MatrixFunctions/arm_mat_cmplx_mult_f32.c **** 
 158:Drivers/CMSIS/DSP/Source/MatrixFunctions/arm_mat_cmplx_mult_f32.c ****           /* c(m,n) = a(1,1)*b(1,1) + a(1,2) * b(2,1) + .... + a(m,p)*b(p,n) */
 159:Drivers/CMSIS/DSP/Source/MatrixFunctions/arm_mat_cmplx_mult_f32.c **** 
 160:Drivers/CMSIS/DSP/Source/MatrixFunctions/arm_mat_cmplx_mult_f32.c ****           a1 = *pIn1;
 149              		.loc 1 160 11 is_stmt 1 view .LVU52
 150              		.loc 1 160 14 is_stmt 0 view .LVU53
 151 006a 92ED027A 		vldr.32	s14, [r2, #8]
 152              	.LVL21:
 161:Drivers/CMSIS/DSP/Source/MatrixFunctions/arm_mat_cmplx_mult_f32.c ****           c1 = *pIn2;
 153              		.loc 1 161 11 is_stmt 1 view .LVU54
 154              		.loc 1 161 14 is_stmt 0 view .LVU55
 155 006e D3ED006A 		vldr.32	s13, [r3]
 156              	.LVL22:
 162:Drivers/CMSIS/DSP/Source/MatrixFunctions/arm_mat_cmplx_mult_f32.c **** 
 163:Drivers/CMSIS/DSP/Source/MatrixFunctions/arm_mat_cmplx_mult_f32.c ****           b1 = *(pIn1 + 1U);
 157              		.loc 1 163 11 is_stmt 1 view .LVU56
 158              		.loc 1 163 14 is_stmt 0 view .LVU57
 159 0072 92ED035A 		vldr.32	s10, [r2, #12]
 160              	.LVL23:
 164:Drivers/CMSIS/DSP/Source/MatrixFunctions/arm_mat_cmplx_mult_f32.c ****           d1 = *(pIn2 + 1U);
 161              		.loc 1 164 11 is_stmt 1 view .LVU58
 162              		.loc 1 164 14 is_stmt 0 view .LVU59
 163 0076 D3ED013A 		vldr.32	s7, [r3, #4]
 164              	.LVL24:
 165:Drivers/CMSIS/DSP/Source/MatrixFunctions/arm_mat_cmplx_mult_f32.c **** 
 166:Drivers/CMSIS/DSP/Source/MatrixFunctions/arm_mat_cmplx_mult_f32.c ****           sumReal1 += a1 * c1;
 165              		.loc 1 166 11 is_stmt 1 view .LVU60
 166              		.loc 1 166 26 is_stmt 0 view .LVU61
 167 007a 67EE264A 		vmul.f32	s9, s14, s13
 168              		.loc 1 166 20 view .LVU62
 169 007e 74EE844A 		vadd.f32	s9, s9, s8
 170              	.LVL25:
 167:Drivers/CMSIS/DSP/Source/MatrixFunctions/arm_mat_cmplx_mult_f32.c ****           sumImag1 += b1 * c1;
 171              		.loc 1 167 11 is_stmt 1 view .LVU63
 172              		.loc 1 167 26 is_stmt 0 view .LVU64
 173 0082 66EE856A 		vmul.f32	s13, s13, s10
 174              	.LVL26:
ARM GAS  C:\Users\Lamp\AppData\Local\Temp\cc5jtw1v.s 			page 7


 175              		.loc 1 167 20 view .LVU65
 176 0086 76EEA55A 		vadd.f32	s11, s13, s11
 177              	.LVL27:
 168:Drivers/CMSIS/DSP/Source/MatrixFunctions/arm_mat_cmplx_mult_f32.c **** 
 169:Drivers/CMSIS/DSP/Source/MatrixFunctions/arm_mat_cmplx_mult_f32.c ****           pIn1 += 2U;
 178              		.loc 1 169 11 is_stmt 1 view .LVU66
 170:Drivers/CMSIS/DSP/Source/MatrixFunctions/arm_mat_cmplx_mult_f32.c ****           pIn2 += 2 * numColsB;
 179              		.loc 1 170 11 view .LVU67
 180              		.loc 1 170 16 is_stmt 0 view .LVU68
 181 008a 03EBC003 		add	r3, r3, r0, lsl #3
 182              	.LVL28:
 171:Drivers/CMSIS/DSP/Source/MatrixFunctions/arm_mat_cmplx_mult_f32.c **** 
 172:Drivers/CMSIS/DSP/Source/MatrixFunctions/arm_mat_cmplx_mult_f32.c ****           sumReal2 -= b1 * d1;
 183              		.loc 1 172 11 is_stmt 1 view .LVU69
 184              		.loc 1 172 26 is_stmt 0 view .LVU70
 185 008e 25EE235A 		vmul.f32	s10, s10, s7
 186              	.LVL29:
 187              		.loc 1 172 20 view .LVU71
 188 0092 77EEC57A 		vsub.f32	s15, s15, s10
 189              	.LVL30:
 173:Drivers/CMSIS/DSP/Source/MatrixFunctions/arm_mat_cmplx_mult_f32.c ****           sumImag2 += a1 * d1;
 190              		.loc 1 173 11 is_stmt 1 view .LVU72
 191              		.loc 1 173 26 is_stmt 0 view .LVU73
 192 0096 27EE237A 		vmul.f32	s14, s14, s7
 193              	.LVL31:
 194              		.loc 1 173 20 view .LVU74
 195 009a 37EE066A 		vadd.f32	s12, s14, s12
 196              	.LVL32:
 174:Drivers/CMSIS/DSP/Source/MatrixFunctions/arm_mat_cmplx_mult_f32.c **** 
 175:Drivers/CMSIS/DSP/Source/MatrixFunctions/arm_mat_cmplx_mult_f32.c ****           a0 = *pIn1;
 197              		.loc 1 175 11 is_stmt 1 view .LVU75
 198              		.loc 1 175 14 is_stmt 0 view .LVU76
 199 009e 92ED047A 		vldr.32	s14, [r2, #16]
 200              	.LVL33:
 176:Drivers/CMSIS/DSP/Source/MatrixFunctions/arm_mat_cmplx_mult_f32.c ****           c0 = *pIn2;
 201              		.loc 1 176 11 is_stmt 1 view .LVU77
 202              		.loc 1 176 14 is_stmt 0 view .LVU78
 203 00a2 D3ED006A 		vldr.32	s13, [r3]
 204              	.LVL34:
 177:Drivers/CMSIS/DSP/Source/MatrixFunctions/arm_mat_cmplx_mult_f32.c **** 
 178:Drivers/CMSIS/DSP/Source/MatrixFunctions/arm_mat_cmplx_mult_f32.c ****           b0 = *(pIn1 + 1U);
 205              		.loc 1 178 11 is_stmt 1 view .LVU79
 206              		.loc 1 178 14 is_stmt 0 view .LVU80
 207 00a6 92ED055A 		vldr.32	s10, [r2, #20]
 208              	.LVL35:
 179:Drivers/CMSIS/DSP/Source/MatrixFunctions/arm_mat_cmplx_mult_f32.c ****           d0 = *(pIn2 + 1U);
 209              		.loc 1 179 11 is_stmt 1 view .LVU81
 210              		.loc 1 179 14 is_stmt 0 view .LVU82
 211 00aa D3ED013A 		vldr.32	s7, [r3, #4]
 212              	.LVL36:
 180:Drivers/CMSIS/DSP/Source/MatrixFunctions/arm_mat_cmplx_mult_f32.c **** 
 181:Drivers/CMSIS/DSP/Source/MatrixFunctions/arm_mat_cmplx_mult_f32.c ****           sumReal1 += a0 * c0;
 213              		.loc 1 181 11 is_stmt 1 view .LVU83
 214              		.loc 1 181 26 is_stmt 0 view .LVU84
 215 00ae 27EE264A 		vmul.f32	s8, s14, s13
 216              		.loc 1 181 20 view .LVU85
 217 00b2 34EE244A 		vadd.f32	s8, s8, s9
ARM GAS  C:\Users\Lamp\AppData\Local\Temp\cc5jtw1v.s 			page 8


 218              	.LVL37:
 182:Drivers/CMSIS/DSP/Source/MatrixFunctions/arm_mat_cmplx_mult_f32.c ****           sumImag1 += b0 * c0;
 219              		.loc 1 182 11 is_stmt 1 view .LVU86
 220              		.loc 1 182 26 is_stmt 0 view .LVU87
 221 00b6 66EE856A 		vmul.f32	s13, s13, s10
 222              	.LVL38:
 223              		.loc 1 182 20 view .LVU88
 224 00ba 76EEA55A 		vadd.f32	s11, s13, s11
 225              	.LVL39:
 183:Drivers/CMSIS/DSP/Source/MatrixFunctions/arm_mat_cmplx_mult_f32.c **** 
 184:Drivers/CMSIS/DSP/Source/MatrixFunctions/arm_mat_cmplx_mult_f32.c ****           pIn1 += 2U;
 226              		.loc 1 184 11 is_stmt 1 view .LVU89
 185:Drivers/CMSIS/DSP/Source/MatrixFunctions/arm_mat_cmplx_mult_f32.c ****           pIn2 += 2 * numColsB;
 227              		.loc 1 185 11 view .LVU90
 228              		.loc 1 185 16 is_stmt 0 view .LVU91
 229 00be 03EBC003 		add	r3, r3, r0, lsl #3
 230              	.LVL40:
 186:Drivers/CMSIS/DSP/Source/MatrixFunctions/arm_mat_cmplx_mult_f32.c **** 
 187:Drivers/CMSIS/DSP/Source/MatrixFunctions/arm_mat_cmplx_mult_f32.c ****           sumReal2 -= b0 * d0;
 231              		.loc 1 187 11 is_stmt 1 view .LVU92
 232              		.loc 1 187 26 is_stmt 0 view .LVU93
 233 00c2 25EE235A 		vmul.f32	s10, s10, s7
 234              	.LVL41:
 235              		.loc 1 187 20 view .LVU94
 236 00c6 77EEC57A 		vsub.f32	s15, s15, s10
 237              	.LVL42:
 188:Drivers/CMSIS/DSP/Source/MatrixFunctions/arm_mat_cmplx_mult_f32.c ****           sumImag2 += a0 * d0;
 238              		.loc 1 188 11 is_stmt 1 view .LVU95
 239              		.loc 1 188 26 is_stmt 0 view .LVU96
 240 00ca 27EE237A 		vmul.f32	s14, s14, s7
 241              	.LVL43:
 242              		.loc 1 188 20 view .LVU97
 243 00ce 37EE066A 		vadd.f32	s12, s14, s12
 244              	.LVL44:
 189:Drivers/CMSIS/DSP/Source/MatrixFunctions/arm_mat_cmplx_mult_f32.c **** 
 190:Drivers/CMSIS/DSP/Source/MatrixFunctions/arm_mat_cmplx_mult_f32.c ****           /* c(m,n) = a(1,1)*b(1,1) + a(1,2) * b(2,1) + .... + a(m,p)*b(p,n) */
 191:Drivers/CMSIS/DSP/Source/MatrixFunctions/arm_mat_cmplx_mult_f32.c **** 
 192:Drivers/CMSIS/DSP/Source/MatrixFunctions/arm_mat_cmplx_mult_f32.c ****           a1 = *pIn1;
 245              		.loc 1 192 11 is_stmt 1 view .LVU98
 246              		.loc 1 192 14 is_stmt 0 view .LVU99
 247 00d2 92ED067A 		vldr.32	s14, [r2, #24]
 248              	.LVL45:
 193:Drivers/CMSIS/DSP/Source/MatrixFunctions/arm_mat_cmplx_mult_f32.c ****           c1 = *pIn2;
 249              		.loc 1 193 11 is_stmt 1 view .LVU100
 250              		.loc 1 193 14 is_stmt 0 view .LVU101
 251 00d6 D3ED006A 		vldr.32	s13, [r3]
 252              	.LVL46:
 194:Drivers/CMSIS/DSP/Source/MatrixFunctions/arm_mat_cmplx_mult_f32.c **** 
 195:Drivers/CMSIS/DSP/Source/MatrixFunctions/arm_mat_cmplx_mult_f32.c ****           b1 = *(pIn1 + 1U);
 253              		.loc 1 195 11 is_stmt 1 view .LVU102
 254              		.loc 1 195 14 is_stmt 0 view .LVU103
 255 00da D2ED074A 		vldr.32	s9, [r2, #28]
 256              	.LVL47:
 196:Drivers/CMSIS/DSP/Source/MatrixFunctions/arm_mat_cmplx_mult_f32.c ****           d1 = *(pIn2 + 1U);
 257              		.loc 1 196 11 is_stmt 1 view .LVU104
 258              		.loc 1 196 14 is_stmt 0 view .LVU105
 259 00de D3ED013A 		vldr.32	s7, [r3, #4]
ARM GAS  C:\Users\Lamp\AppData\Local\Temp\cc5jtw1v.s 			page 9


 260              	.LVL48:
 197:Drivers/CMSIS/DSP/Source/MatrixFunctions/arm_mat_cmplx_mult_f32.c **** 
 198:Drivers/CMSIS/DSP/Source/MatrixFunctions/arm_mat_cmplx_mult_f32.c ****           sumReal1 += a1 * c1;
 261              		.loc 1 198 11 is_stmt 1 view .LVU106
 262              		.loc 1 198 26 is_stmt 0 view .LVU107
 263 00e2 27EE265A 		vmul.f32	s10, s14, s13
 264              		.loc 1 198 20 view .LVU108
 265 00e6 35EE045A 		vadd.f32	s10, s10, s8
 266              	.LVL49:
 199:Drivers/CMSIS/DSP/Source/MatrixFunctions/arm_mat_cmplx_mult_f32.c ****           sumImag1 += b1 * c1;
 267              		.loc 1 199 11 is_stmt 1 view .LVU109
 268              		.loc 1 199 26 is_stmt 0 view .LVU110
 269 00ea 66EEA46A 		vmul.f32	s13, s13, s9
 270              	.LVL50:
 271              		.loc 1 199 20 view .LVU111
 272 00ee 76EEA56A 		vadd.f32	s13, s13, s11
 273              	.LVL51:
 200:Drivers/CMSIS/DSP/Source/MatrixFunctions/arm_mat_cmplx_mult_f32.c **** 
 201:Drivers/CMSIS/DSP/Source/MatrixFunctions/arm_mat_cmplx_mult_f32.c ****           pIn1 += 2U;
 274              		.loc 1 201 11 is_stmt 1 view .LVU112
 275              		.loc 1 201 16 is_stmt 0 view .LVU113
 276 00f2 2032     		adds	r2, r2, #32
 277              	.LVL52:
 202:Drivers/CMSIS/DSP/Source/MatrixFunctions/arm_mat_cmplx_mult_f32.c ****           pIn2 += 2 * numColsB;
 278              		.loc 1 202 11 is_stmt 1 view .LVU114
 279              		.loc 1 202 16 is_stmt 0 view .LVU115
 280 00f4 03EBC003 		add	r3, r3, r0, lsl #3
 281              	.LVL53:
 203:Drivers/CMSIS/DSP/Source/MatrixFunctions/arm_mat_cmplx_mult_f32.c **** 
 204:Drivers/CMSIS/DSP/Source/MatrixFunctions/arm_mat_cmplx_mult_f32.c ****           sumReal2 -= b1 * d1;
 282              		.loc 1 204 11 is_stmt 1 view .LVU116
 283              		.loc 1 204 26 is_stmt 0 view .LVU117
 284 00f8 64EEA34A 		vmul.f32	s9, s9, s7
 285              	.LVL54:
 286              		.loc 1 204 20 view .LVU118
 287 00fc 77EEE47A 		vsub.f32	s15, s15, s9
 288              	.LVL55:
 205:Drivers/CMSIS/DSP/Source/MatrixFunctions/arm_mat_cmplx_mult_f32.c ****           sumImag2 += a1 * d1;
 289              		.loc 1 205 11 is_stmt 1 view .LVU119
 290              		.loc 1 205 26 is_stmt 0 view .LVU120
 291 0100 27EE237A 		vmul.f32	s14, s14, s7
 292              	.LVL56:
 293              		.loc 1 205 20 view .LVU121
 294 0104 37EE067A 		vadd.f32	s14, s14, s12
 295              	.LVL57:
 206:Drivers/CMSIS/DSP/Source/MatrixFunctions/arm_mat_cmplx_mult_f32.c **** 
 207:Drivers/CMSIS/DSP/Source/MatrixFunctions/arm_mat_cmplx_mult_f32.c ****           /* Decrement the loop count */
 208:Drivers/CMSIS/DSP/Source/MatrixFunctions/arm_mat_cmplx_mult_f32.c ****           colCnt--;
 296              		.loc 1 208 11 is_stmt 1 view .LVU122
 297              		.loc 1 208 17 is_stmt 0 view .LVU123
 298 0108 0139     		subs	r1, r1, #1
 299              	.LVL58:
 300              		.loc 1 208 17 view .LVU124
 301 010a 89B2     		uxth	r1, r1
 302              	.LVL59:
 303              	.L3:
 134:Drivers/CMSIS/DSP/Source/MatrixFunctions/arm_mat_cmplx_mult_f32.c ****         {
ARM GAS  C:\Users\Lamp\AppData\Local\Temp\cc5jtw1v.s 			page 10


 304              		.loc 1 134 23 is_stmt 1 view .LVU125
 305 010c 0029     		cmp	r1, #0
 306 010e 92D1     		bne	.L4
 209:Drivers/CMSIS/DSP/Source/MatrixFunctions/arm_mat_cmplx_mult_f32.c ****         }
 210:Drivers/CMSIS/DSP/Source/MatrixFunctions/arm_mat_cmplx_mult_f32.c **** 
 211:Drivers/CMSIS/DSP/Source/MatrixFunctions/arm_mat_cmplx_mult_f32.c ****         /* If the columns of pSrcA is not a multiple of 4, compute any remaining MACs here.
 212:Drivers/CMSIS/DSP/Source/MatrixFunctions/arm_mat_cmplx_mult_f32.c ****          ** No loop unrolling is used. */
 213:Drivers/CMSIS/DSP/Source/MatrixFunctions/arm_mat_cmplx_mult_f32.c ****         colCnt = numColsA % 0x4U;
 307              		.loc 1 213 9 view .LVU126
 308              		.loc 1 213 16 is_stmt 0 view .LVU127
 309 0110 0EF00301 		and	r1, lr, #3
 310              	.LVL60:
 214:Drivers/CMSIS/DSP/Source/MatrixFunctions/arm_mat_cmplx_mult_f32.c **** 
 215:Drivers/CMSIS/DSP/Source/MatrixFunctions/arm_mat_cmplx_mult_f32.c ****         while (colCnt > 0U)
 311              		.loc 1 215 9 is_stmt 1 view .LVU128
 312              		.loc 1 215 15 is_stmt 0 view .LVU129
 313 0114 1CE0     		b	.L5
 314              	.L6:
 216:Drivers/CMSIS/DSP/Source/MatrixFunctions/arm_mat_cmplx_mult_f32.c ****         {
 217:Drivers/CMSIS/DSP/Source/MatrixFunctions/arm_mat_cmplx_mult_f32.c ****           /* c(m,n) = a(1,1)*b(1,1) + a(1,2) * b(2,1) + .... + a(m,p)*b(p,n) */
 218:Drivers/CMSIS/DSP/Source/MatrixFunctions/arm_mat_cmplx_mult_f32.c ****           a1 = *pIn1;
 315              		.loc 1 218 11 is_stmt 1 view .LVU130
 316              		.loc 1 218 14 is_stmt 0 view .LVU131
 317 0116 92ED006A 		vldr.32	s12, [r2]
 318              	.LVL61:
 219:Drivers/CMSIS/DSP/Source/MatrixFunctions/arm_mat_cmplx_mult_f32.c ****           c1 = *pIn2;
 319              		.loc 1 219 11 is_stmt 1 view .LVU132
 320              		.loc 1 219 14 is_stmt 0 view .LVU133
 321 011a D3ED004A 		vldr.32	s9, [r3]
 322              	.LVL62:
 220:Drivers/CMSIS/DSP/Source/MatrixFunctions/arm_mat_cmplx_mult_f32.c **** 
 221:Drivers/CMSIS/DSP/Source/MatrixFunctions/arm_mat_cmplx_mult_f32.c ****           b1 = *(pIn1 + 1U);
 323              		.loc 1 221 11 is_stmt 1 view .LVU134
 324              		.loc 1 221 14 is_stmt 0 view .LVU135
 325 011e D2ED015A 		vldr.32	s11, [r2, #4]
 326              	.LVL63:
 222:Drivers/CMSIS/DSP/Source/MatrixFunctions/arm_mat_cmplx_mult_f32.c ****           d1 = *(pIn2 + 1U);
 327              		.loc 1 222 11 is_stmt 1 view .LVU136
 328              		.loc 1 222 14 is_stmt 0 view .LVU137
 329 0122 93ED014A 		vldr.32	s8, [r3, #4]
 330              	.LVL64:
 223:Drivers/CMSIS/DSP/Source/MatrixFunctions/arm_mat_cmplx_mult_f32.c **** 
 224:Drivers/CMSIS/DSP/Source/MatrixFunctions/arm_mat_cmplx_mult_f32.c ****           sumReal1 += a1 * c1;
 331              		.loc 1 224 11 is_stmt 1 view .LVU138
 332              		.loc 1 224 26 is_stmt 0 view .LVU139
 333 0126 66EE243A 		vmul.f32	s7, s12, s9
 334              		.loc 1 224 20 view .LVU140
 335 012a 35EE235A 		vadd.f32	s10, s10, s7
 336              	.LVL65:
 225:Drivers/CMSIS/DSP/Source/MatrixFunctions/arm_mat_cmplx_mult_f32.c ****           sumImag1 += b1 * c1;
 337              		.loc 1 225 11 is_stmt 1 view .LVU141
 338              		.loc 1 225 26 is_stmt 0 view .LVU142
 339 012e 64EEA54A 		vmul.f32	s9, s9, s11
 340              	.LVL66:
 341              		.loc 1 225 20 view .LVU143
 342 0132 76EEA46A 		vadd.f32	s13, s13, s9
 343              	.LVL67:
ARM GAS  C:\Users\Lamp\AppData\Local\Temp\cc5jtw1v.s 			page 11


 226:Drivers/CMSIS/DSP/Source/MatrixFunctions/arm_mat_cmplx_mult_f32.c **** 
 227:Drivers/CMSIS/DSP/Source/MatrixFunctions/arm_mat_cmplx_mult_f32.c ****           pIn1 += 2U;
 344              		.loc 1 227 11 is_stmt 1 view .LVU144
 345              		.loc 1 227 16 is_stmt 0 view .LVU145
 346 0136 0832     		adds	r2, r2, #8
 347              	.LVL68:
 228:Drivers/CMSIS/DSP/Source/MatrixFunctions/arm_mat_cmplx_mult_f32.c ****           pIn2 += 2 * numColsB;
 348              		.loc 1 228 11 is_stmt 1 view .LVU146
 349              		.loc 1 228 16 is_stmt 0 view .LVU147
 350 0138 03EBC003 		add	r3, r3, r0, lsl #3
 351              	.LVL69:
 229:Drivers/CMSIS/DSP/Source/MatrixFunctions/arm_mat_cmplx_mult_f32.c **** 
 230:Drivers/CMSIS/DSP/Source/MatrixFunctions/arm_mat_cmplx_mult_f32.c ****           sumReal2 -= b1 * d1;
 352              		.loc 1 230 11 is_stmt 1 view .LVU148
 353              		.loc 1 230 26 is_stmt 0 view .LVU149
 354 013c 65EE845A 		vmul.f32	s11, s11, s8
 355              	.LVL70:
 356              		.loc 1 230 20 view .LVU150
 357 0140 77EEE57A 		vsub.f32	s15, s15, s11
 358              	.LVL71:
 231:Drivers/CMSIS/DSP/Source/MatrixFunctions/arm_mat_cmplx_mult_f32.c ****           sumImag2 += a1 * d1;
 359              		.loc 1 231 11 is_stmt 1 view .LVU151
 360              		.loc 1 231 26 is_stmt 0 view .LVU152
 361 0144 26EE046A 		vmul.f32	s12, s12, s8
 362              	.LVL72:
 363              		.loc 1 231 20 view .LVU153
 364 0148 37EE067A 		vadd.f32	s14, s14, s12
 365              	.LVL73:
 232:Drivers/CMSIS/DSP/Source/MatrixFunctions/arm_mat_cmplx_mult_f32.c **** 
 233:Drivers/CMSIS/DSP/Source/MatrixFunctions/arm_mat_cmplx_mult_f32.c ****           /* Decrement the loop counter */
 234:Drivers/CMSIS/DSP/Source/MatrixFunctions/arm_mat_cmplx_mult_f32.c ****           colCnt--;
 366              		.loc 1 234 11 is_stmt 1 view .LVU154
 367              		.loc 1 234 17 is_stmt 0 view .LVU155
 368 014c 0139     		subs	r1, r1, #1
 369              	.LVL74:
 370              		.loc 1 234 17 view .LVU156
 371 014e 89B2     		uxth	r1, r1
 372              	.LVL75:
 373              	.L5:
 215:Drivers/CMSIS/DSP/Source/MatrixFunctions/arm_mat_cmplx_mult_f32.c ****         {
 374              		.loc 1 215 23 is_stmt 1 view .LVU157
 375 0150 0029     		cmp	r1, #0
 376 0152 E0D1     		bne	.L6
 235:Drivers/CMSIS/DSP/Source/MatrixFunctions/arm_mat_cmplx_mult_f32.c ****         }
 236:Drivers/CMSIS/DSP/Source/MatrixFunctions/arm_mat_cmplx_mult_f32.c **** 
 237:Drivers/CMSIS/DSP/Source/MatrixFunctions/arm_mat_cmplx_mult_f32.c ****         sumReal1 += sumReal2;
 377              		.loc 1 237 9 view .LVU158
 378              		.loc 1 237 18 is_stmt 0 view .LVU159
 379 0154 35EE275A 		vadd.f32	s10, s10, s15
 380              	.LVL76:
 238:Drivers/CMSIS/DSP/Source/MatrixFunctions/arm_mat_cmplx_mult_f32.c ****         sumImag1 += sumImag2;
 381              		.loc 1 238 9 is_stmt 1 view .LVU160
 382              		.loc 1 238 18 is_stmt 0 view .LVU161
 383 0158 76EE876A 		vadd.f32	s13, s13, s14
 384              	.LVL77:
 239:Drivers/CMSIS/DSP/Source/MatrixFunctions/arm_mat_cmplx_mult_f32.c **** 
 240:Drivers/CMSIS/DSP/Source/MatrixFunctions/arm_mat_cmplx_mult_f32.c ****         /* Store the result in the destination buffer */
ARM GAS  C:\Users\Lamp\AppData\Local\Temp\cc5jtw1v.s 			page 12


 241:Drivers/CMSIS/DSP/Source/MatrixFunctions/arm_mat_cmplx_mult_f32.c ****         *px++ = sumReal1;
 385              		.loc 1 241 9 is_stmt 1 view .LVU162
 386              		.loc 1 241 15 is_stmt 0 view .LVU163
 387 015c 5246     		mov	r2, r10
 388              	.LVL78:
 389              		.loc 1 241 15 view .LVU164
 390 015e 0832     		adds	r2, r2, #8
 391 0160 8AED005A 		vstr.32	s10, [r10]
 242:Drivers/CMSIS/DSP/Source/MatrixFunctions/arm_mat_cmplx_mult_f32.c ****         *px++ = sumImag1;
 392              		.loc 1 242 9 is_stmt 1 view .LVU165
 393              	.LVL79:
 394              		.loc 1 242 15 is_stmt 0 view .LVU166
 395 0164 CAED016A 		vstr.32	s13, [r10, #4]
 243:Drivers/CMSIS/DSP/Source/MatrixFunctions/arm_mat_cmplx_mult_f32.c **** 
 244:Drivers/CMSIS/DSP/Source/MatrixFunctions/arm_mat_cmplx_mult_f32.c ****         /* Update the pointer pIn2 to point to the  starting address of the next column */
 245:Drivers/CMSIS/DSP/Source/MatrixFunctions/arm_mat_cmplx_mult_f32.c ****         j++;
 396              		.loc 1 245 9 is_stmt 1 view .LVU167
 397              		.loc 1 245 10 is_stmt 0 view .LVU168
 398 0168 0CF1010C 		add	ip, ip, #1
 399              	.LVL80:
 400              		.loc 1 245 10 view .LVU169
 401 016c 1FFA8CFC 		uxth	ip, ip
 402              	.LVL81:
 246:Drivers/CMSIS/DSP/Source/MatrixFunctions/arm_mat_cmplx_mult_f32.c ****         pIn2 = pSrcB->pData + 2U * j;
 403              		.loc 1 246 9 is_stmt 1 view .LVU170
 404              		.loc 1 246 21 is_stmt 0 view .LVU171
 405 0170 7368     		ldr	r3, [r6, #4]
 406              	.LVL82:
 407              		.loc 1 246 14 view .LVU172
 408 0172 03EBCC03 		add	r3, r3, ip, lsl #3
 409              	.LVL83:
 247:Drivers/CMSIS/DSP/Source/MatrixFunctions/arm_mat_cmplx_mult_f32.c **** 
 248:Drivers/CMSIS/DSP/Source/MatrixFunctions/arm_mat_cmplx_mult_f32.c ****         /* Decrement the column loop counter */
 249:Drivers/CMSIS/DSP/Source/MatrixFunctions/arm_mat_cmplx_mult_f32.c ****         col--;
 410              		.loc 1 249 9 is_stmt 1 view .LVU173
 411              		.loc 1 249 12 is_stmt 0 view .LVU174
 412 0176 013C     		subs	r4, r4, #1
 413              	.LVL84:
 414              		.loc 1 249 12 view .LVU175
 415 0178 A4B2     		uxth	r4, r4
 416              	.LVL85:
 250:Drivers/CMSIS/DSP/Source/MatrixFunctions/arm_mat_cmplx_mult_f32.c **** 
 251:Drivers/CMSIS/DSP/Source/MatrixFunctions/arm_mat_cmplx_mult_f32.c ****       } while (col > 0U);
 417              		.loc 1 251 20 is_stmt 1 view .LVU176
 418 017a 64B1     		cbz	r4, .L14
 242:Drivers/CMSIS/DSP/Source/MatrixFunctions/arm_mat_cmplx_mult_f32.c **** 
 419              		.loc 1 242 12 is_stmt 0 view .LVU177
 420 017c 9246     		mov	r10, r2
 421              	.LVL86:
 422              	.L7:
 118:Drivers/CMSIS/DSP/Source/MatrixFunctions/arm_mat_cmplx_mult_f32.c ****       {
 423              		.loc 1 118 7 is_stmt 1 view .LVU178
 121:Drivers/CMSIS/DSP/Source/MatrixFunctions/arm_mat_cmplx_mult_f32.c ****         sumImag1 = 0.0f;
 424              		.loc 1 121 9 view .LVU179
 122:Drivers/CMSIS/DSP/Source/MatrixFunctions/arm_mat_cmplx_mult_f32.c **** 
 425              		.loc 1 122 9 view .LVU180
 124:Drivers/CMSIS/DSP/Source/MatrixFunctions/arm_mat_cmplx_mult_f32.c ****         sumImag2 = 0.0f;
ARM GAS  C:\Users\Lamp\AppData\Local\Temp\cc5jtw1v.s 			page 13


 426              		.loc 1 124 9 view .LVU181
 125:Drivers/CMSIS/DSP/Source/MatrixFunctions/arm_mat_cmplx_mult_f32.c **** 
 427              		.loc 1 125 9 view .LVU182
 128:Drivers/CMSIS/DSP/Source/MatrixFunctions/arm_mat_cmplx_mult_f32.c **** 
 428              		.loc 1 128 9 view .LVU183
 131:Drivers/CMSIS/DSP/Source/MatrixFunctions/arm_mat_cmplx_mult_f32.c **** 
 429              		.loc 1 131 9 view .LVU184
 131:Drivers/CMSIS/DSP/Source/MatrixFunctions/arm_mat_cmplx_mult_f32.c **** 
 430              		.loc 1 131 16 is_stmt 0 view .LVU185
 431 017e 4FEA9E01 		lsr	r1, lr, #2
 432              	.LVL87:
 134:Drivers/CMSIS/DSP/Source/MatrixFunctions/arm_mat_cmplx_mult_f32.c ****         {
 433              		.loc 1 134 9 is_stmt 1 view .LVU186
 128:Drivers/CMSIS/DSP/Source/MatrixFunctions/arm_mat_cmplx_mult_f32.c **** 
 434              		.loc 1 128 14 is_stmt 0 view .LVU187
 435 0182 2A46     		mov	r2, r5
 125:Drivers/CMSIS/DSP/Source/MatrixFunctions/arm_mat_cmplx_mult_f32.c **** 
 436              		.loc 1 125 18 view .LVU188
 437 0184 9FED117A 		vldr.32	s14, .L16
 124:Drivers/CMSIS/DSP/Source/MatrixFunctions/arm_mat_cmplx_mult_f32.c ****         sumImag2 = 0.0f;
 438              		.loc 1 124 18 view .LVU189
 439 0188 F0EE477A 		vmov.f32	s15, s14
 122:Drivers/CMSIS/DSP/Source/MatrixFunctions/arm_mat_cmplx_mult_f32.c **** 
 440              		.loc 1 122 18 view .LVU190
 441 018c F0EE476A 		vmov.f32	s13, s14
 121:Drivers/CMSIS/DSP/Source/MatrixFunctions/arm_mat_cmplx_mult_f32.c ****         sumImag1 = 0.0f;
 442              		.loc 1 121 18 view .LVU191
 443 0190 B0EE475A 		vmov.f32	s10, s14
 134:Drivers/CMSIS/DSP/Source/MatrixFunctions/arm_mat_cmplx_mult_f32.c ****         {
 444              		.loc 1 134 15 view .LVU192
 445 0194 BAE7     		b	.L3
 446              	.LVL88:
 447              	.L14:
 252:Drivers/CMSIS/DSP/Source/MatrixFunctions/arm_mat_cmplx_mult_f32.c **** 
 253:Drivers/CMSIS/DSP/Source/MatrixFunctions/arm_mat_cmplx_mult_f32.c ****       /* Update the pointer pInA to point to the  starting address of the next row */
 254:Drivers/CMSIS/DSP/Source/MatrixFunctions/arm_mat_cmplx_mult_f32.c ****       i = i + numColsB;
 448              		.loc 1 254 7 is_stmt 1 view .LVU193
 449              		.loc 1 254 9 is_stmt 0 view .LVU194
 450 0196 8044     		add	r8, r8, r0
 451              	.LVL89:
 452              		.loc 1 254 9 view .LVU195
 453 0198 1FFA88F8 		uxth	r8, r8
 454              	.LVL90:
 255:Drivers/CMSIS/DSP/Source/MatrixFunctions/arm_mat_cmplx_mult_f32.c ****       pInA = pInA + 2 * numColsA;
 455              		.loc 1 255 7 is_stmt 1 view .LVU196
 456              		.loc 1 255 12 is_stmt 0 view .LVU197
 457 019c 05EBCE05 		add	r5, r5, lr, lsl #3
 458              	.LVL91:
 256:Drivers/CMSIS/DSP/Source/MatrixFunctions/arm_mat_cmplx_mult_f32.c **** 
 257:Drivers/CMSIS/DSP/Source/MatrixFunctions/arm_mat_cmplx_mult_f32.c ****       /* Decrement the row loop counter */
 258:Drivers/CMSIS/DSP/Source/MatrixFunctions/arm_mat_cmplx_mult_f32.c ****       row--;
 459              		.loc 1 258 7 is_stmt 1 view .LVU198
 460              		.loc 1 258 10 is_stmt 0 view .LVU199
 461 01a0 013F     		subs	r7, r7, #1
 462              	.LVL92:
 463              		.loc 1 258 10 view .LVU200
 464 01a2 BFB2     		uxth	r7, r7
ARM GAS  C:\Users\Lamp\AppData\Local\Temp\cc5jtw1v.s 			page 14


 465              	.LVL93:
 259:Drivers/CMSIS/DSP/Source/MatrixFunctions/arm_mat_cmplx_mult_f32.c **** 
 260:Drivers/CMSIS/DSP/Source/MatrixFunctions/arm_mat_cmplx_mult_f32.c ****     } while (row > 0U);
 466              		.loc 1 260 18 is_stmt 1 view .LVU201
 467 01a4 37B1     		cbz	r7, .L15
 468              	.LVL94:
 469              	.L8:
 103:Drivers/CMSIS/DSP/Source/MatrixFunctions/arm_mat_cmplx_mult_f32.c ****     {
 470              		.loc 1 103 5 view .LVU202
 106:Drivers/CMSIS/DSP/Source/MatrixFunctions/arm_mat_cmplx_mult_f32.c **** 
 471              		.loc 1 106 7 view .LVU203
 106:Drivers/CMSIS/DSP/Source/MatrixFunctions/arm_mat_cmplx_mult_f32.c **** 
 472              		.loc 1 106 10 is_stmt 0 view .LVU204
 473 01a6 09EBC80A 		add	r10, r9, r8, lsl #3
 474              	.LVL95:
 109:Drivers/CMSIS/DSP/Source/MatrixFunctions/arm_mat_cmplx_mult_f32.c **** 
 475              		.loc 1 109 7 is_stmt 1 view .LVU205
 113:Drivers/CMSIS/DSP/Source/MatrixFunctions/arm_mat_cmplx_mult_f32.c **** 
 476              		.loc 1 113 7 view .LVU206
 113:Drivers/CMSIS/DSP/Source/MatrixFunctions/arm_mat_cmplx_mult_f32.c **** 
 477              		.loc 1 113 12 is_stmt 0 view .LVU207
 478 01aa 7368     		ldr	r3, [r6, #4]
 479              	.LVL96:
 115:Drivers/CMSIS/DSP/Source/MatrixFunctions/arm_mat_cmplx_mult_f32.c **** 
 480              		.loc 1 115 7 is_stmt 1 view .LVU208
 109:Drivers/CMSIS/DSP/Source/MatrixFunctions/arm_mat_cmplx_mult_f32.c **** 
 481              		.loc 1 109 11 is_stmt 0 view .LVU209
 482 01ac 0446     		mov	r4, r0
 115:Drivers/CMSIS/DSP/Source/MatrixFunctions/arm_mat_cmplx_mult_f32.c **** 
 483              		.loc 1 115 9 view .LVU210
 484 01ae 4FF0000C 		mov	ip, #0
 485 01b2 E4E7     		b	.L7
 486              	.LVL97:
 487              	.L15:
 261:Drivers/CMSIS/DSP/Source/MatrixFunctions/arm_mat_cmplx_mult_f32.c **** 
 262:Drivers/CMSIS/DSP/Source/MatrixFunctions/arm_mat_cmplx_mult_f32.c ****     /* Set status as ARM_MATH_SUCCESS */
 263:Drivers/CMSIS/DSP/Source/MatrixFunctions/arm_mat_cmplx_mult_f32.c ****     status = ARM_MATH_SUCCESS;
 488              		.loc 1 263 12 view .LVU211
 489 01b4 0020     		movs	r0, #0
 490              	.LVL98:
 491              	.L2:
 264:Drivers/CMSIS/DSP/Source/MatrixFunctions/arm_mat_cmplx_mult_f32.c ****   }
 265:Drivers/CMSIS/DSP/Source/MatrixFunctions/arm_mat_cmplx_mult_f32.c **** 
 266:Drivers/CMSIS/DSP/Source/MatrixFunctions/arm_mat_cmplx_mult_f32.c ****   /* Return to application */
 267:Drivers/CMSIS/DSP/Source/MatrixFunctions/arm_mat_cmplx_mult_f32.c ****   return (status);
 492              		.loc 1 267 3 is_stmt 1 view .LVU212
 268:Drivers/CMSIS/DSP/Source/MatrixFunctions/arm_mat_cmplx_mult_f32.c **** }
 493              		.loc 1 268 1 is_stmt 0 view .LVU213
 494 01b6 BDE8F087 		pop	{r4, r5, r6, r7, r8, r9, r10, pc}
 495              	.LVL99:
 496              	.L9:
  95:Drivers/CMSIS/DSP/Source/MatrixFunctions/arm_mat_cmplx_mult_f32.c ****   }
 497              		.loc 1 95 12 view .LVU214
 498 01ba 6FF00200 		mvn	r0, #2
 499              	.LVL100:
  95:Drivers/CMSIS/DSP/Source/MatrixFunctions/arm_mat_cmplx_mult_f32.c ****   }
 500              		.loc 1 95 12 view .LVU215
ARM GAS  C:\Users\Lamp\AppData\Local\Temp\cc5jtw1v.s 			page 15


 501 01be FAE7     		b	.L2
 502              	.LVL101:
 503              	.L10:
  95:Drivers/CMSIS/DSP/Source/MatrixFunctions/arm_mat_cmplx_mult_f32.c ****   }
 504              		.loc 1 95 12 view .LVU216
 505 01c0 6FF00200 		mvn	r0, #2
 506              	.LVL102:
  95:Drivers/CMSIS/DSP/Source/MatrixFunctions/arm_mat_cmplx_mult_f32.c ****   }
 507              		.loc 1 95 12 view .LVU217
 508 01c4 F7E7     		b	.L2
 509              	.LVL103:
 510              	.L11:
  95:Drivers/CMSIS/DSP/Source/MatrixFunctions/arm_mat_cmplx_mult_f32.c ****   }
 511              		.loc 1 95 12 view .LVU218
 512 01c6 6FF00200 		mvn	r0, #2
 513              	.LVL104:
  95:Drivers/CMSIS/DSP/Source/MatrixFunctions/arm_mat_cmplx_mult_f32.c ****   }
 514              		.loc 1 95 12 view .LVU219
 515 01ca F4E7     		b	.L2
 516              	.L17:
 517              		.align	2
 518              	.L16:
 519 01cc 00000000 		.word	0
 520              		.cfi_endproc
 521              	.LFE139:
 523              		.text
 524              	.Letext0:
 525              		.file 2 "C:\\ST\\STM32CubeCLT_1.16.0\\GNU-tools-for-STM32\\bin\\../lib/gcc/arm-none-eabi/12.3.1/..
 526              		.file 3 "C:\\ST\\STM32CubeCLT_1.16.0\\GNU-tools-for-STM32\\bin\\../lib/gcc/arm-none-eabi/12.3.1/..
 527              		.file 4 "Drivers/CMSIS/DSP/Include/arm_math.h"
ARM GAS  C:\Users\Lamp\AppData\Local\Temp\cc5jtw1v.s 			page 16

