ARM GAS  C:\Users\Lamp\AppData\Local\Temp\ccF5JNWB.s 			page 1


   1              		.cpu cortex-m4
   2              		.arch armv7e-m
   3              		.fpu fpv4-sp-d16
   4              		.eabi_attribute 27, 1
   5              		.eabi_attribute 28, 1
   6              		.eabi_attribute 20, 1
   7              		.eabi_attribute 21, 1
   8              		.eabi_attribute 23, 3
   9              		.eabi_attribute 24, 1
  10              		.eabi_attribute 25, 1
  11              		.eabi_attribute 26, 1
  12              		.eabi_attribute 30, 1
  13              		.eabi_attribute 34, 1
  14              		.eabi_attribute 18, 4
  15              		.file	"Computer.c"
  16              		.text
  17              	.Ltext0:
  18              		.cfi_sections	.debug_frame
  19              		.file 1 "Core/Src/Application/Src/Computer.c"
  20              		.section	.text.init,"ax",%progbits
  21              		.align	1
  22              		.syntax unified
  23              		.thumb
  24              		.thumb_func
  26              	init:
  27              	.LVL0:
  28              	.LFB175:
   1:Core/Src/Application/Src/Computer.c **** #include "Computer.h"
   2:Core/Src/Application/Src/Computer.c **** 
   3:Core/Src/Application/Src/Computer.c **** extern UART_HandleTypeDef huart3;
   4:Core/Src/Application/Src/Computer.c **** 
   5:Core/Src/Application/Src/Computer.c **** extern struct Estimator * estimator; 
   6:Core/Src/Application/Src/Computer.c **** 
   7:Core/Src/Application/Src/Computer.c **** struct Active * AO_Computer;
   8:Core/Src/Application/Src/Computer.c **** struct Computer * computer;
   9:Core/Src/Application/Src/Computer.c **** 
  10:Core/Src/Application/Src/Computer.c **** static char tx_data[50];
  11:Core/Src/Application/Src/Computer.c **** uint8_t rx_byte_data;
  12:Core/Src/Application/Src/Computer.c **** 
  13:Core/Src/Application/Src/Computer.c **** State state_topic = {.Motor = {0.0f}, .Cart = {0.0f}, .Pendulum = {0.0f}};
  14:Core/Src/Application/Src/Computer.c **** 
  15:Core/Src/Application/Src/Computer.c **** static Status init (struct Computer * const self, Event const * const event) {
  29              		.loc 1 15 78 view -0
  30              		.cfi_startproc
  31              		@ args = 0, pretend = 0, frame = 0
  32              		@ frame_needed = 0, uses_anonymous_args = 0
  33              		@ link register save eliminated.
  16:Core/Src/Application/Src/Computer.c ****     Status status = TRAN_STATUS;
  34              		.loc 1 16 5 view .LVU1
  17:Core/Src/Application/Src/Computer.c ****     self->super.handler = (StateHandler) self->wait;
  35              		.loc 1 17 5 view .LVU2
  36              		.loc 1 17 46 is_stmt 0 view .LVU3
  37 0000 D0F8D830 		ldr	r3, [r0, #216]
  38              		.loc 1 17 25 view .LVU4
  39 0004 0360     		str	r3, [r0]
  18:Core/Src/Application/Src/Computer.c ****     return status;
  40              		.loc 1 18 5 is_stmt 1 view .LVU5
ARM GAS  C:\Users\Lamp\AppData\Local\Temp\ccF5JNWB.s 			page 2


  19:Core/Src/Application/Src/Computer.c **** }
  41              		.loc 1 19 1 is_stmt 0 view .LVU6
  42 0006 0020     		movs	r0, #0
  43              	.LVL1:
  44              		.loc 1 19 1 view .LVU7
  45 0008 7047     		bx	lr
  46              		.cfi_endproc
  47              	.LFE175:
  49              		.section	.text.sending,"ax",%progbits
  50              		.align	1
  51              		.syntax unified
  52              		.thumb
  53              		.thumb_func
  55              	sending:
  56              	.LVL2:
  57              	.LFB176:
  20:Core/Src/Application/Src/Computer.c **** 
  21:Core/Src/Application/Src/Computer.c **** static Status sending (struct Computer * const self, Event const * const event) {
  58              		.loc 1 21 81 is_stmt 1 view -0
  59              		.cfi_startproc
  60              		@ args = 0, pretend = 0, frame = 0
  61              		@ frame_needed = 0, uses_anonymous_args = 0
  62              		@ link register save eliminated.
  22:Core/Src/Application/Src/Computer.c ****     Status status;
  63              		.loc 1 22 5 view .LVU9
  23:Core/Src/Application/Src/Computer.c **** 
  24:Core/Src/Application/Src/Computer.c ****     switch (event->signal) {
  64              		.loc 1 24 5 view .LVU10
  65              		.loc 1 24 18 is_stmt 0 view .LVU11
  66 0000 0B88     		ldrh	r3, [r1]
  67              		.loc 1 24 5 view .LVU12
  68 0002 022B     		cmp	r3, #2
  69 0004 06D9     		bls	.L7
  70 0006 042B     		cmp	r3, #4
  71 0008 0AD1     		bne	.L6
  25:Core/Src/Application/Src/Computer.c ****         case ENTRY_SIG:
  26:Core/Src/Application/Src/Computer.c ****             status = HANDLED_STATUS;
  27:Core/Src/Application/Src/Computer.c ****             break;
  28:Core/Src/Application/Src/Computer.c **** 
  29:Core/Src/Application/Src/Computer.c ****         case SENSOR_SENDED_SIG:
  30:Core/Src/Application/Src/Computer.c ****             self->super.handler = (StateHandler)self->wait;
  72              		.loc 1 30 13 is_stmt 1 view .LVU13
  73              		.loc 1 30 53 is_stmt 0 view .LVU14
  74 000a D0F8D830 		ldr	r3, [r0, #216]
  75              		.loc 1 30 33 view .LVU15
  76 000e 0360     		str	r3, [r0]
  31:Core/Src/Application/Src/Computer.c ****             status = TRAN_STATUS;
  77              		.loc 1 31 13 is_stmt 1 view .LVU16
  78              	.LVL3:
  32:Core/Src/Application/Src/Computer.c ****             break;
  79              		.loc 1 32 13 view .LVU17
  31:Core/Src/Application/Src/Computer.c ****             status = TRAN_STATUS;
  80              		.loc 1 31 20 is_stmt 0 view .LVU18
  81 0010 0020     		movs	r0, #0
  82              	.LVL4:
  83              		.loc 1 32 13 view .LVU19
  84 0012 7047     		bx	lr
ARM GAS  C:\Users\Lamp\AppData\Local\Temp\ccF5JNWB.s 			page 3


  85              	.LVL5:
  86              	.L7:
  24:Core/Src/Application/Src/Computer.c ****         case ENTRY_SIG:
  87              		.loc 1 24 5 view .LVU20
  88 0014 1BB2     		sxth	r3, r3
  89 0016 0BB1     		cbz	r3, .L5
  90 0018 0120     		movs	r0, #1
  91              	.LVL6:
  24:Core/Src/Application/Src/Computer.c ****         case ENTRY_SIG:
  92              		.loc 1 24 5 view .LVU21
  93 001a 7047     		bx	lr
  94              	.LVL7:
  95              	.L5:
  33:Core/Src/Application/Src/Computer.c **** 
  34:Core/Src/Application/Src/Computer.c ****         case EXIT_SIG:
  35:Core/Src/Application/Src/Computer.c ****             status = HANDLED_STATUS;
  36:Core/Src/Application/Src/Computer.c ****             break;
  37:Core/Src/Application/Src/Computer.c ****         
  38:Core/Src/Application/Src/Computer.c ****         default:
  39:Core/Src/Application/Src/Computer.c ****             status = IGNORED_STATUS;
  96              		.loc 1 39 20 view .LVU22
  97 001c 0220     		movs	r0, #2
  98              	.LVL8:
  99              		.loc 1 39 20 view .LVU23
 100 001e 7047     		bx	lr
 101              	.LVL9:
 102              	.L6:
 103              		.loc 1 39 20 view .LVU24
 104 0020 0220     		movs	r0, #2
 105              	.LVL10:
  40:Core/Src/Application/Src/Computer.c ****             break;
  41:Core/Src/Application/Src/Computer.c ****     }
  42:Core/Src/Application/Src/Computer.c **** 
  43:Core/Src/Application/Src/Computer.c ****     return status;
 106              		.loc 1 43 5 is_stmt 1 view .LVU25
  44:Core/Src/Application/Src/Computer.c **** }
 107              		.loc 1 44 1 is_stmt 0 view .LVU26
 108 0022 7047     		bx	lr
 109              		.cfi_endproc
 110              	.LFE176:
 112              		.section	.text.new,"ax",%progbits
 113              		.align	1
 114              		.syntax unified
 115              		.thumb
 116              		.thumb_func
 118              	new:
 119              	.LVL11:
 120              	.LFB180:
  45:Core/Src/Application/Src/Computer.c **** 
  46:Core/Src/Application/Src/Computer.c **** static Status wait (struct Computer *const self, Event const * const event) {
  47:Core/Src/Application/Src/Computer.c ****     Status status;
  48:Core/Src/Application/Src/Computer.c ****     
  49:Core/Src/Application/Src/Computer.c ****     switch (event->signal) {
  50:Core/Src/Application/Src/Computer.c ****         case ENTRY_SIG:
  51:Core/Src/Application/Src/Computer.c ****             HAL_UART_Receive_IT(&huart3, &rx_byte_data, 1);           
  52:Core/Src/Application/Src/Computer.c ****             status = HANDLED_STATUS;
  53:Core/Src/Application/Src/Computer.c ****             break;
ARM GAS  C:\Users\Lamp\AppData\Local\Temp\ccF5JNWB.s 			page 4


  54:Core/Src/Application/Src/Computer.c **** 
  55:Core/Src/Application/Src/Computer.c ****         case STATE_UPDATED_SIG:
  56:Core/Src/Application/Src/Computer.c ****             // static State state_topic = {.Motor = {0.0f}, .Cart = {0.0f}, .Pendulum = {0.0f}};
  57:Core/Src/Application/Src/Computer.c ****             BaseType_t is_success;
  58:Core/Src/Application/Src/Computer.c ****             is_success = xQueuePeek(estimator->state_pub, &state_topic, 0);
  59:Core/Src/Application/Src/Computer.c ****             
  60:Core/Src/Application/Src/Computer.c ****             if(is_success) {
  61:Core/Src/Application/Src/Computer.c ****                 sprintf(tx_data,
  62:Core/Src/Application/Src/Computer.c ****                         "S%0.6f %0.6f %0.6f %0.6f\n",
  63:Core/Src/Application/Src/Computer.c ****                         state_topic.Cart.position,
  64:Core/Src/Application/Src/Computer.c ****                         state_topic.Cart.velocity,
  65:Core/Src/Application/Src/Computer.c ****                         state_topic.Pendulum.position,
  66:Core/Src/Application/Src/Computer.c ****                         state_topic.Pendulum.velocity
  67:Core/Src/Application/Src/Computer.c ****                 );
  68:Core/Src/Application/Src/Computer.c ****                 SendBuffer(&huart3, tx_data);
  69:Core/Src/Application/Src/Computer.c **** 
  70:Core/Src/Application/Src/Computer.c ****                 self->super.handler = (StateHandler) self->sending;
  71:Core/Src/Application/Src/Computer.c ****                 status = TRAN_STATUS;
  72:Core/Src/Application/Src/Computer.c ****             }
  73:Core/Src/Application/Src/Computer.c ****             else
  74:Core/Src/Application/Src/Computer.c ****             {
  75:Core/Src/Application/Src/Computer.c ****                 status = HANDLED_STATUS;
  76:Core/Src/Application/Src/Computer.c ****             }
  77:Core/Src/Application/Src/Computer.c ****         
  78:Core/Src/Application/Src/Computer.c ****             break;
  79:Core/Src/Application/Src/Computer.c **** 
  80:Core/Src/Application/Src/Computer.c ****         case EXIT_SIG:
  81:Core/Src/Application/Src/Computer.c ****             status = HANDLED_STATUS;
  82:Core/Src/Application/Src/Computer.c ****             break;
  83:Core/Src/Application/Src/Computer.c ****         
  84:Core/Src/Application/Src/Computer.c ****         default:
  85:Core/Src/Application/Src/Computer.c ****             status = IGNORED_STATUS;
  86:Core/Src/Application/Src/Computer.c ****             break;
  87:Core/Src/Application/Src/Computer.c ****     }
  88:Core/Src/Application/Src/Computer.c ****     return status;
  89:Core/Src/Application/Src/Computer.c **** }
  90:Core/Src/Application/Src/Computer.c **** 
  91:Core/Src/Application/Src/Computer.c **** static void public(QueueHandle_t xQueue, const void * pvItemToQueue) {
  92:Core/Src/Application/Src/Computer.c **** 
  93:Core/Src/Application/Src/Computer.c ****     xQueueOverwrite(xQueue, pvItemToQueue);
  94:Core/Src/Application/Src/Computer.c **** }
  95:Core/Src/Application/Src/Computer.c **** 
  96:Core/Src/Application/Src/Computer.c **** static void publicFromISR(QueueHandle_t xQueue, const void * pvItemToQueue, BaseType_t *pxHigherPri
  97:Core/Src/Application/Src/Computer.c ****   xQueueOverwriteFromISR(xQueue, pvItemToQueue, pxHigherPriorityTaskWoken);
  98:Core/Src/Application/Src/Computer.c **** }
  99:Core/Src/Application/Src/Computer.c **** 
 100:Core/Src/Application/Src/Computer.c **** static void new (struct Computer * const self) {
 121              		.loc 1 100 48 is_stmt 1 view -0
 122              		.cfi_startproc
 123              		@ args = 0, pretend = 0, frame = 0
 124              		@ frame_needed = 0, uses_anonymous_args = 0
 125              		.loc 1 100 48 is_stmt 0 view .LVU28
 126 0000 10B5     		push	{r4, lr}
 127              	.LCFI0:
 128              		.cfi_def_cfa_offset 8
 129              		.cfi_offset 4, -8
 130              		.cfi_offset 14, -4
ARM GAS  C:\Users\Lamp\AppData\Local\Temp\ccF5JNWB.s 			page 5


 131 0002 0446     		mov	r4, r0
 101:Core/Src/Application/Src/Computer.c ****     /* Assign methods */
 102:Core/Src/Application/Src/Computer.c ****     self->init          = &init;
 132              		.loc 1 102 5 is_stmt 1 view .LVU29
 133              		.loc 1 102 25 is_stmt 0 view .LVU30
 134 0004 1149     		ldr	r1, .L10
 135 0006 C0F8D410 		str	r1, [r0, #212]
 103:Core/Src/Application/Src/Computer.c ****     self->sending       = &sending;
 136              		.loc 1 103 5 is_stmt 1 view .LVU31
 137              		.loc 1 103 25 is_stmt 0 view .LVU32
 138 000a 114B     		ldr	r3, .L10+4
 139 000c C0F8DC30 		str	r3, [r0, #220]
 104:Core/Src/Application/Src/Computer.c ****     self->wait          = &wait;
 140              		.loc 1 104 5 is_stmt 1 view .LVU33
 141              		.loc 1 104 25 is_stmt 0 view .LVU34
 142 0010 104B     		ldr	r3, .L10+8
 143 0012 C0F8D830 		str	r3, [r0, #216]
 105:Core/Src/Application/Src/Computer.c ****     self->public        = &public;
 144              		.loc 1 105 5 is_stmt 1 view .LVU35
 145              		.loc 1 105 25 is_stmt 0 view .LVU36
 146 0016 104B     		ldr	r3, .L10+12
 147 0018 C0F8E030 		str	r3, [r0, #224]
 106:Core/Src/Application/Src/Computer.c ****     self->publicFromISR = &publicFromISR;
 148              		.loc 1 106 5 is_stmt 1 view .LVU37
 149              		.loc 1 106 25 is_stmt 0 view .LVU38
 150 001c 0F4B     		ldr	r3, .L10+16
 151 001e C0F8E430 		str	r3, [r0, #228]
 107:Core/Src/Application/Src/Computer.c **** 
 108:Core/Src/Application/Src/Computer.c ****     Active_new(&self->super, (StateHandler) &init);
 152              		.loc 1 108 5 is_stmt 1 view .LVU39
 153 0022 FFF7FEFF 		bl	Active_new
 154              	.LVL12:
 109:Core/Src/Application/Src/Computer.c **** 
 110:Core/Src/Application/Src/Computer.c ****     AO_Computer = &self->super;
 155              		.loc 1 110 5 view .LVU40
 156              		.loc 1 110 17 is_stmt 0 view .LVU41
 157 0026 0E4B     		ldr	r3, .L10+20
 158 0028 1C60     		str	r4, [r3]
 111:Core/Src/Application/Src/Computer.c ****     computer = self;
 159              		.loc 1 111 5 is_stmt 1 view .LVU42
 160              		.loc 1 111 14 is_stmt 0 view .LVU43
 161 002a 0E4B     		ldr	r3, .L10+24
 162 002c 1C60     		str	r4, [r3]
 112:Core/Src/Application/Src/Computer.c **** 
 113:Core/Src/Application/Src/Computer.c ****     /* Initialize Queue for Mailbox as subsribers, publishers */
 114:Core/Src/Application/Src/Computer.c ****     self->state_sub = estimator->state_pub;
 163              		.loc 1 114 5 is_stmt 1 view .LVU44
 164              		.loc 1 114 32 is_stmt 0 view .LVU45
 165 002e 0E4B     		ldr	r3, .L10+28
 166 0030 1B68     		ldr	r3, [r3]
 167 0032 D3F8D430 		ldr	r3, [r3, #212]
 168              		.loc 1 114 21 view .LVU46
 169 0036 C4F8CC30 		str	r3, [r4, #204]
 115:Core/Src/Application/Src/Computer.c ****     self->received_message_sub = xQueueCreate(1, sizeof(RecivedMessage));
 170              		.loc 1 115 5 is_stmt 1 view .LVU47
 171              		.loc 1 115 34 is_stmt 0 view .LVU48
 172 003a 0022     		movs	r2, #0
ARM GAS  C:\Users\Lamp\AppData\Local\Temp\ccF5JNWB.s 			page 6


 173 003c 0821     		movs	r1, #8
 174 003e 0120     		movs	r0, #1
 175 0040 FFF7FEFF 		bl	xQueueGenericCreate
 176              	.LVL13:
 177              		.loc 1 115 32 discriminator 1 view .LVU49
 178 0044 C4F8D000 		str	r0, [r4, #208]
 116:Core/Src/Application/Src/Computer.c **** }
 179              		.loc 1 116 1 view .LVU50
 180 0048 10BD     		pop	{r4, pc}
 181              	.LVL14:
 182              	.L11:
 183              		.loc 1 116 1 view .LVU51
 184 004a 00BF     		.align	2
 185              	.L10:
 186 004c 00000000 		.word	init
 187 0050 00000000 		.word	sending
 188 0054 00000000 		.word	wait
 189 0058 00000000 		.word	public
 190 005c 00000000 		.word	publicFromISR
 191 0060 00000000 		.word	AO_Computer
 192 0064 00000000 		.word	computer
 193 0068 00000000 		.word	estimator
 194              		.cfi_endproc
 195              	.LFE180:
 197              		.section	.text.publicFromISR,"ax",%progbits
 198              		.align	1
 199              		.syntax unified
 200              		.thumb
 201              		.thumb_func
 203              	publicFromISR:
 204              	.LVL15:
 205              	.LFB179:
  96:Core/Src/Application/Src/Computer.c ****   xQueueOverwriteFromISR(xQueue, pvItemToQueue, pxHigherPriorityTaskWoken);
 206              		.loc 1 96 116 is_stmt 1 view -0
 207              		.cfi_startproc
 208              		@ args = 0, pretend = 0, frame = 0
 209              		@ frame_needed = 0, uses_anonymous_args = 0
  96:Core/Src/Application/Src/Computer.c ****   xQueueOverwriteFromISR(xQueue, pvItemToQueue, pxHigherPriorityTaskWoken);
 210              		.loc 1 96 116 is_stmt 0 view .LVU53
 211 0000 08B5     		push	{r3, lr}
 212              	.LCFI1:
 213              		.cfi_def_cfa_offset 8
 214              		.cfi_offset 3, -8
 215              		.cfi_offset 14, -4
  97:Core/Src/Application/Src/Computer.c **** }
 216              		.loc 1 97 3 is_stmt 1 view .LVU54
 217 0002 0223     		movs	r3, #2
 218 0004 FFF7FEFF 		bl	xQueueGenericSendFromISR
 219              	.LVL16:
  98:Core/Src/Application/Src/Computer.c **** 
 220              		.loc 1 98 1 is_stmt 0 view .LVU55
 221 0008 08BD     		pop	{r3, pc}
 222              		.cfi_endproc
 223              	.LFE179:
 225              		.section	.text.public,"ax",%progbits
 226              		.align	1
 227              		.syntax unified
ARM GAS  C:\Users\Lamp\AppData\Local\Temp\ccF5JNWB.s 			page 7


 228              		.thumb
 229              		.thumb_func
 231              	public:
 232              	.LVL17:
 233              	.LFB178:
  91:Core/Src/Application/Src/Computer.c **** 
 234              		.loc 1 91 70 is_stmt 1 view -0
 235              		.cfi_startproc
 236              		@ args = 0, pretend = 0, frame = 0
 237              		@ frame_needed = 0, uses_anonymous_args = 0
  91:Core/Src/Application/Src/Computer.c **** 
 238              		.loc 1 91 70 is_stmt 0 view .LVU57
 239 0000 08B5     		push	{r3, lr}
 240              	.LCFI2:
 241              		.cfi_def_cfa_offset 8
 242              		.cfi_offset 3, -8
 243              		.cfi_offset 14, -4
  93:Core/Src/Application/Src/Computer.c **** }
 244              		.loc 1 93 5 is_stmt 1 view .LVU58
 245 0002 0223     		movs	r3, #2
 246 0004 0022     		movs	r2, #0
 247 0006 FFF7FEFF 		bl	xQueueGenericSend
 248              	.LVL18:
  94:Core/Src/Application/Src/Computer.c **** 
 249              		.loc 1 94 1 is_stmt 0 view .LVU59
 250 000a 08BD     		pop	{r3, pc}
 251              		.cfi_endproc
 252              	.LFE178:
 254              		.global	__aeabi_f2d
 255              		.section	.rodata.wait.str1.4,"aMS",%progbits,1
 256              		.align	2
 257              	.LC0:
 258 0000 5325302E 		.ascii	"S%0.6f %0.6f %0.6f %0.6f\012\000"
 258      36662025 
 258      302E3666 
 258      2025302E 
 258      36662025 
 259              		.section	.text.wait,"ax",%progbits
 260              		.align	1
 261              		.syntax unified
 262              		.thumb
 263              		.thumb_func
 265              	wait:
 266              	.LVL19:
 267              	.LFB177:
  46:Core/Src/Application/Src/Computer.c ****     Status status;
 268              		.loc 1 46 77 is_stmt 1 view -0
 269              		.cfi_startproc
 270              		@ args = 0, pretend = 0, frame = 0
 271              		@ frame_needed = 0, uses_anonymous_args = 0
  47:Core/Src/Application/Src/Computer.c ****     
 272              		.loc 1 47 5 view .LVU61
  49:Core/Src/Application/Src/Computer.c ****         case ENTRY_SIG:
 273              		.loc 1 49 5 view .LVU62
  49:Core/Src/Application/Src/Computer.c ****         case ENTRY_SIG:
 274              		.loc 1 49 18 is_stmt 0 view .LVU63
 275 0000 0B88     		ldrh	r3, [r1]
ARM GAS  C:\Users\Lamp\AppData\Local\Temp\ccF5JNWB.s 			page 8


  49:Core/Src/Application/Src/Computer.c ****         case ENTRY_SIG:
 276              		.loc 1 49 5 view .LVU64
 277 0002 022B     		cmp	r3, #2
 278 0004 46D0     		beq	.L19
  46:Core/Src/Application/Src/Computer.c ****     Status status;
 279              		.loc 1 46 77 view .LVU65
 280 0006 2DE9F047 		push	{r4, r5, r6, r7, r8, r9, r10, lr}
 281              	.LCFI3:
 282              		.cfi_def_cfa_offset 32
 283              		.cfi_offset 4, -32
 284              		.cfi_offset 5, -28
 285              		.cfi_offset 6, -24
 286              		.cfi_offset 7, -20
 287              		.cfi_offset 8, -16
 288              		.cfi_offset 9, -12
 289              		.cfi_offset 10, -8
 290              		.cfi_offset 14, -4
 291 000a 86B0     		sub	sp, sp, #24
 292              	.LCFI4:
 293              		.cfi_def_cfa_offset 56
 294 000c 0446     		mov	r4, r0
  49:Core/Src/Application/Src/Computer.c ****         case ENTRY_SIG:
 295              		.loc 1 49 5 view .LVU66
 296 000e 052B     		cmp	r3, #5
 297 0010 0AD0     		beq	.L18
 298 0012 012B     		cmp	r3, #1
 299 0014 40D1     		bne	.L20
 300              	.LBB2:
  51:Core/Src/Application/Src/Computer.c ****             status = HANDLED_STATUS;
 301              		.loc 1 51 13 is_stmt 1 view .LVU67
 302 0016 0122     		movs	r2, #1
 303 0018 2049     		ldr	r1, .L27
 304              	.LVL20:
  51:Core/Src/Application/Src/Computer.c ****             status = HANDLED_STATUS;
 305              		.loc 1 51 13 is_stmt 0 view .LVU68
 306 001a 2148     		ldr	r0, .L27+4
 307              	.LVL21:
  51:Core/Src/Application/Src/Computer.c ****             status = HANDLED_STATUS;
 308              		.loc 1 51 13 view .LVU69
 309 001c FFF7FEFF 		bl	HAL_UART_Receive_IT
 310              	.LVL22:
  52:Core/Src/Application/Src/Computer.c ****             break;
 311              		.loc 1 52 13 is_stmt 1 view .LVU70
  53:Core/Src/Application/Src/Computer.c **** 
 312              		.loc 1 53 13 view .LVU71
  52:Core/Src/Application/Src/Computer.c ****             break;
 313              		.loc 1 52 20 is_stmt 0 view .LVU72
 314 0020 0120     		movs	r0, #1
 315              	.LVL23:
 316              	.L17:
  52:Core/Src/Application/Src/Computer.c ****             break;
 317              		.loc 1 52 20 view .LVU73
 318              	.LBE2:
  88:Core/Src/Application/Src/Computer.c **** }
 319              		.loc 1 88 5 is_stmt 1 view .LVU74
  89:Core/Src/Application/Src/Computer.c **** 
 320              		.loc 1 89 1 is_stmt 0 view .LVU75
ARM GAS  C:\Users\Lamp\AppData\Local\Temp\ccF5JNWB.s 			page 9


 321 0022 06B0     		add	sp, sp, #24
 322              	.LCFI5:
 323              		.cfi_remember_state
 324              		.cfi_def_cfa_offset 32
 325              		@ sp needed
 326 0024 BDE8F087 		pop	{r4, r5, r6, r7, r8, r9, r10, pc}
 327              	.LVL24:
 328              	.L18:
 329              	.LCFI6:
 330              		.cfi_restore_state
 331              	.LBB3:
  57:Core/Src/Application/Src/Computer.c ****             is_success = xQueuePeek(estimator->state_pub, &state_topic, 0);
 332              		.loc 1 57 13 is_stmt 1 view .LVU76
  58:Core/Src/Application/Src/Computer.c ****             
 333              		.loc 1 58 13 view .LVU77
  58:Core/Src/Application/Src/Computer.c ****             
 334              		.loc 1 58 46 is_stmt 0 view .LVU78
 335 0028 1E4B     		ldr	r3, .L27+8
 336 002a 1B68     		ldr	r3, [r3]
  58:Core/Src/Application/Src/Computer.c ****             
 337              		.loc 1 58 26 view .LVU79
 338 002c 0022     		movs	r2, #0
 339 002e 1E49     		ldr	r1, .L27+12
 340              	.LVL25:
  58:Core/Src/Application/Src/Computer.c ****             
 341              		.loc 1 58 26 view .LVU80
 342 0030 D3F8D400 		ldr	r0, [r3, #212]
 343              	.LVL26:
  58:Core/Src/Application/Src/Computer.c ****             
 344              		.loc 1 58 26 view .LVU81
 345 0034 FFF7FEFF 		bl	xQueuePeek
 346              	.LVL27:
  60:Core/Src/Application/Src/Computer.c ****                 sprintf(tx_data,
 347              		.loc 1 60 13 is_stmt 1 view .LVU82
  60:Core/Src/Application/Src/Computer.c ****                 sprintf(tx_data,
 348              		.loc 1 60 15 is_stmt 0 view .LVU83
 349 0038 08B9     		cbnz	r0, .L26
  75:Core/Src/Application/Src/Computer.c ****             }
 350              		.loc 1 75 24 view .LVU84
 351 003a 0120     		movs	r0, #1
 352              	.LVL28:
  75:Core/Src/Application/Src/Computer.c ****             }
 353              		.loc 1 75 24 view .LVU85
 354 003c F1E7     		b	.L17
 355              	.LVL29:
 356              	.L26:
  61:Core/Src/Application/Src/Computer.c ****                         "S%0.6f %0.6f %0.6f %0.6f\n",
 357              		.loc 1 61 17 is_stmt 1 view .LVU86
  63:Core/Src/Application/Src/Computer.c ****                         state_topic.Cart.velocity,
 358              		.loc 1 63 41 is_stmt 0 view .LVU87
 359 003e 1A4B     		ldr	r3, .L27+12
  64:Core/Src/Application/Src/Computer.c ****                         state_topic.Pendulum.position,
 360              		.loc 1 64 41 view .LVU88
 361 0040 D3F81480 		ldr	r8, [r3, #20]	@ float
  65:Core/Src/Application/Src/Computer.c ****                         state_topic.Pendulum.velocity
 362              		.loc 1 65 45 view .LVU89
 363 0044 D3F82090 		ldr	r9, [r3, #32]	@ float
ARM GAS  C:\Users\Lamp\AppData\Local\Temp\ccF5JNWB.s 			page 10


  66:Core/Src/Application/Src/Computer.c ****                 );
 364              		.loc 1 66 45 view .LVU90
 365 0048 D3F824A0 		ldr	r10, [r3, #36]	@ float
  61:Core/Src/Application/Src/Computer.c ****                         "S%0.6f %0.6f %0.6f %0.6f\n",
 366              		.loc 1 61 17 view .LVU91
 367 004c 1869     		ldr	r0, [r3, #16]	@ float
 368              	.LVL30:
  61:Core/Src/Application/Src/Computer.c ****                         "S%0.6f %0.6f %0.6f %0.6f\n",
 369              		.loc 1 61 17 view .LVU92
 370 004e FFF7FEFF 		bl	__aeabi_f2d
 371              	.LVL31:
 372 0052 0646     		mov	r6, r0
 373 0054 0F46     		mov	r7, r1
 374 0056 154D     		ldr	r5, .L27+16
 375 0058 5046     		mov	r0, r10	@ float
 376 005a FFF7FEFF 		bl	__aeabi_f2d
 377              	.LVL32:
 378 005e CDE90401 		strd	r0, [sp, #16]
 379 0062 4846     		mov	r0, r9	@ float
 380 0064 FFF7FEFF 		bl	__aeabi_f2d
 381              	.LVL33:
 382 0068 CDE90201 		strd	r0, [sp, #8]
 383 006c 4046     		mov	r0, r8	@ float
 384 006e FFF7FEFF 		bl	__aeabi_f2d
 385              	.LVL34:
 386 0072 CDE90001 		strd	r0, [sp]
 387 0076 3246     		mov	r2, r6
 388 0078 3B46     		mov	r3, r7
 389 007a 0D49     		ldr	r1, .L27+20
 390 007c 2846     		mov	r0, r5
 391 007e FFF7FEFF 		bl	sprintf_
 392              	.LVL35:
  68:Core/Src/Application/Src/Computer.c **** 
 393              		.loc 1 68 17 is_stmt 1 view .LVU93
 394 0082 2946     		mov	r1, r5
 395 0084 0648     		ldr	r0, .L27+4
 396 0086 FFF7FEFF 		bl	SendBuffer
 397              	.LVL36:
  70:Core/Src/Application/Src/Computer.c ****                 status = TRAN_STATUS;
 398              		.loc 1 70 17 view .LVU94
  70:Core/Src/Application/Src/Computer.c ****                 status = TRAN_STATUS;
 399              		.loc 1 70 58 is_stmt 0 view .LVU95
 400 008a D4F8DC30 		ldr	r3, [r4, #220]
  70:Core/Src/Application/Src/Computer.c ****                 status = TRAN_STATUS;
 401              		.loc 1 70 37 view .LVU96
 402 008e 2360     		str	r3, [r4]
  71:Core/Src/Application/Src/Computer.c ****             }
 403              		.loc 1 71 17 is_stmt 1 view .LVU97
 404              	.LVL37:
  71:Core/Src/Application/Src/Computer.c ****             }
 405              		.loc 1 71 24 is_stmt 0 view .LVU98
 406 0090 0020     		movs	r0, #0
 407 0092 C6E7     		b	.L17
 408              	.LVL38:
 409              	.L19:
 410              	.LCFI7:
 411              		.cfi_def_cfa_offset 0
ARM GAS  C:\Users\Lamp\AppData\Local\Temp\ccF5JNWB.s 			page 11


 412              		.cfi_restore 4
 413              		.cfi_restore 5
 414              		.cfi_restore 6
 415              		.cfi_restore 7
 416              		.cfi_restore 8
 417              		.cfi_restore 9
 418              		.cfi_restore 10
 419              		.cfi_restore 14
  71:Core/Src/Application/Src/Computer.c ****             }
 420              		.loc 1 71 24 view .LVU99
 421              	.LBE3:
  49:Core/Src/Application/Src/Computer.c ****         case ENTRY_SIG:
 422              		.loc 1 49 5 view .LVU100
 423 0094 0120     		movs	r0, #1
 424              	.LVL39:
  88:Core/Src/Application/Src/Computer.c **** }
 425              		.loc 1 88 5 is_stmt 1 view .LVU101
  89:Core/Src/Application/Src/Computer.c **** 
 426              		.loc 1 89 1 is_stmt 0 view .LVU102
 427 0096 7047     		bx	lr
 428              	.LVL40:
 429              	.L20:
 430              	.LCFI8:
 431              		.cfi_def_cfa_offset 56
 432              		.cfi_offset 4, -32
 433              		.cfi_offset 5, -28
 434              		.cfi_offset 6, -24
 435              		.cfi_offset 7, -20
 436              		.cfi_offset 8, -16
 437              		.cfi_offset 9, -12
 438              		.cfi_offset 10, -8
 439              		.cfi_offset 14, -4
 440              	.LBB4:
  85:Core/Src/Application/Src/Computer.c ****             break;
 441              		.loc 1 85 20 view .LVU103
 442 0098 0220     		movs	r0, #2
 443              	.LVL41:
  85:Core/Src/Application/Src/Computer.c ****             break;
 444              		.loc 1 85 20 view .LVU104
 445 009a C2E7     		b	.L17
 446              	.L28:
 447              		.align	2
 448              	.L27:
 449 009c 00000000 		.word	rx_byte_data
 450 00a0 00000000 		.word	huart3
 451 00a4 00000000 		.word	estimator
 452 00a8 00000000 		.word	state_topic
 453 00ac 00000000 		.word	tx_data
 454 00b0 00000000 		.word	.LC0
 455              	.LBE4:
 456              		.cfi_endproc
 457              	.LFE177:
 459              		.global	Computer
 460              		.section	.rodata.Computer,"a"
 461              		.align	2
 464              	Computer:
 465 0000 00000000 		.word	new
ARM GAS  C:\Users\Lamp\AppData\Local\Temp\ccF5JNWB.s 			page 12


 466              		.global	state_topic
 467              		.section	.bss.state_topic,"aw",%nobits
 468              		.align	2
 471              	state_topic:
 472 0000 00000000 		.space	48
 472      00000000 
 472      00000000 
 472      00000000 
 472      00000000 
 473              		.global	rx_byte_data
 474              		.section	.bss.rx_byte_data,"aw",%nobits
 477              	rx_byte_data:
 478 0000 00       		.space	1
 479              		.section	.bss.tx_data,"aw",%nobits
 480              		.align	2
 483              	tx_data:
 484 0000 00000000 		.space	50
 484      00000000 
 484      00000000 
 484      00000000 
 484      00000000 
 485              		.global	computer
 486              		.section	.bss.computer,"aw",%nobits
 487              		.align	2
 490              	computer:
 491 0000 00000000 		.space	4
 492              		.global	AO_Computer
 493              		.section	.bss.AO_Computer,"aw",%nobits
 494              		.align	2
 497              	AO_Computer:
 498 0000 00000000 		.space	4
 499              		.text
 500              	.Letext0:
 501              		.file 2 "C:/ARM GNU Toolchain/arm-none-eabi/include/machine/_default_types.h"
 502              		.file 3 "C:/ARM GNU Toolchain/arm-none-eabi/include/sys/_stdint.h"
 503              		.file 4 "Drivers/CMSIS/Device/ST/STM32F4xx/Include/stm32f407xx.h"
 504              		.file 5 "Drivers/STM32F4xx_HAL_Driver/Inc/stm32f4xx_hal_def.h"
 505              		.file 6 "Drivers/STM32F4xx_HAL_Driver/Inc/stm32f4xx_hal_dma.h"
 506              		.file 7 "Drivers/STM32F4xx_HAL_Driver/Inc/stm32f4xx_hal_uart.h"
 507              		.file 8 "ThirdParty/FreeRTOS/portable/GCC/ARM_CM4F/portmacro.h"
 508              		.file 9 "ThirdParty/FreeRTOS/include/FreeRTOS.h"
 509              		.file 10 "ThirdParty/FreeRTOS/include/task.h"
 510              		.file 11 "ThirdParty/FreeRTOS/include/queue.h"
 511              		.file 12 "Drivers/CMSIS/DSP/Include/arm_math.h"
 512              		.file 13 "Core/Src/Middleware/Topic.h"
 513              		.file 14 "Core/Src/Middleware/Active_Object.h"
 514              		.file 15 "Core/Src/Middleware/dsp.h"
 515              		.file 16 "Core/Src/Application/Inc/Estimator.h"
 516              		.file 17 "Core/Src/Application/Inc/Computer.h"
 517              		.file 18 "Core/Inc/printf.h"
 518              		.file 19 "Core/Src/Drivers/Inc/usart.h"
ARM GAS  C:\Users\Lamp\AppData\Local\Temp\ccF5JNWB.s 			page 13

