ARM GAS  C:\Users\Lamp\AppData\Local\Temp\cc7SDzZc.s 			page 1


   1              		.cpu cortex-m4
   2              		.arch armv7e-m
   3              		.fpu fpv4-sp-d16
   4              		.eabi_attribute 27, 1
   5              		.eabi_attribute 28, 1
   6              		.eabi_attribute 20, 1
   7              		.eabi_attribute 21, 1
   8              		.eabi_attribute 23, 3
   9              		.eabi_attribute 24, 1
  10              		.eabi_attribute 25, 1
  11              		.eabi_attribute 26, 1
  12              		.eabi_attribute 30, 1
  13              		.eabi_attribute 34, 1
  14              		.eabi_attribute 18, 4
  15              		.file	"Controller.c"
  16              		.text
  17              	.Ltext0:
  18              		.cfi_sections	.debug_frame
  19              		.file 1 "Core/Src/Drivers/Src/Controller.c"
  20              		.global	__aeabi_f2lz
  21              		.global	__aeabi_l2f
  22              		.section	.text.PI_Vel,"ax",%progbits
  23              		.align	1
  24              		.global	PI_Vel
  25              		.syntax unified
  26              		.thumb
  27              		.thumb_func
  29              	PI_Vel:
  30              	.LVL0:
  31              	.LFB134:
   1:Core/Src/Drivers/Src/Controller.c **** #include "Controller.h"
   2:Core/Src/Drivers/Src/Controller.c **** 
   3:Core/Src/Drivers/Src/Controller.c **** int64_t PI_Vel(float SetPoint, float CurrentValue, float Ts) {
  32              		.loc 1 3 62 view -0
  33              		.cfi_startproc
  34              		@ args = 0, pretend = 0, frame = 0
  35              		@ frame_needed = 0, uses_anonymous_args = 0
  36              		.loc 1 3 62 is_stmt 0 view .LVU1
  37 0000 38B5     		push	{r3, r4, r5, lr}
  38              	.LCFI0:
  39              		.cfi_def_cfa_offset 16
  40              		.cfi_offset 3, -16
  41              		.cfi_offset 4, -12
  42              		.cfi_offset 5, -8
  43              		.cfi_offset 14, -4
   4:Core/Src/Drivers/Src/Controller.c ****   float error = SetPoint - CurrentValue;
  44              		.loc 1 4 3 is_stmt 1 view .LVU2
  45              		.loc 1 4 9 is_stmt 0 view .LVU3
  46 0002 30EE600A 		vsub.f32	s0, s0, s1
  47              	.LVL1:
   5:Core/Src/Drivers/Src/Controller.c ****   float up = 0, ud = 0;
  48              		.loc 1 5 3 is_stmt 1 view .LVU4
   6:Core/Src/Drivers/Src/Controller.c ****   static float ui, errorReset, pre_error;
  49              		.loc 1 6 3 view .LVU5
   7:Core/Src/Drivers/Src/Controller.c ****   int64_t pwm;
  50              		.loc 1 7 3 view .LVU6
   8:Core/Src/Drivers/Src/Controller.c **** 
ARM GAS  C:\Users\Lamp\AppData\Local\Temp\cc7SDzZc.s 			page 2


   9:Core/Src/Drivers/Src/Controller.c ****   int64_t Hlim = 1000;
  51              		.loc 1 9 3 view .LVU7
  10:Core/Src/Drivers/Src/Controller.c ****   int64_t Llim = -1000;
  52              		.loc 1 10 3 view .LVU8
  11:Core/Src/Drivers/Src/Controller.c **** 
  12:Core/Src/Drivers/Src/Controller.c ****   float Kp = 10.8111;
  53              		.loc 1 12 3 view .LVU9
  13:Core/Src/Drivers/Src/Controller.c ****   float Ki = 464.0847;
  54              		.loc 1 13 3 view .LVU10
  14:Core/Src/Drivers/Src/Controller.c ****   float Kd = 0;
  55              		.loc 1 14 3 view .LVU11
  15:Core/Src/Drivers/Src/Controller.c ****   float Kb = 42.9266;
  56              		.loc 1 15 3 view .LVU12
  16:Core/Src/Drivers/Src/Controller.c **** 
  17:Core/Src/Drivers/Src/Controller.c ****   up = Kp * error;
  57              		.loc 1 17 3 view .LVU13
  58              		.loc 1 17 6 is_stmt 0 view .LVU14
  59 0006 DFED296A 		vldr.32	s13, .L7
  60 000a 60EE266A 		vmul.f32	s13, s0, s13
  61              	.LVL2:
  18:Core/Src/Drivers/Src/Controller.c ****   ui += Ki*error*Ts + Kb*errorReset*Ts;
  62              		.loc 1 18 3 is_stmt 1 view .LVU15
  63              		.loc 1 18 11 is_stmt 0 view .LVU16
  64 000e DFED287A 		vldr.32	s15, .L7+4
  65 0012 60EE277A 		vmul.f32	s15, s0, s15
  66              		.loc 1 18 17 view .LVU17
  67 0016 67EE817A 		vmul.f32	s15, s15, s2
  68              		.loc 1 18 25 view .LVU18
  69 001a 264B     		ldr	r3, .L7+8
  70 001c 93ED007A 		vldr.32	s14, [r3]
  71 0020 9FED256A 		vldr.32	s12, .L7+12
  72 0024 27EE067A 		vmul.f32	s14, s14, s12
  73              		.loc 1 18 36 view .LVU19
  74 0028 27EE017A 		vmul.f32	s14, s14, s2
  75              		.loc 1 18 21 view .LVU20
  76 002c 77EE877A 		vadd.f32	s15, s15, s14
  77              		.loc 1 18 6 view .LVU21
  78 0030 224B     		ldr	r3, .L7+16
  79 0032 93ED007A 		vldr.32	s14, [r3]
  80 0036 77EE877A 		vadd.f32	s15, s15, s14
  81 003a C3ED007A 		vstr.32	s15, [r3]
  19:Core/Src/Drivers/Src/Controller.c ****   ud = Kd*(error - pre_error)/Ts;
  82              		.loc 1 19 3 is_stmt 1 view .LVU22
  83              		.loc 1 19 18 is_stmt 0 view .LVU23
  84 003e 204B     		ldr	r3, .L7+20
  85 0040 93ED007A 		vldr.32	s14, [r3]
  86 0044 30EE477A 		vsub.f32	s14, s0, s14
  87              		.loc 1 19 10 view .LVU24
  88 0048 9FED1E6A 		vldr.32	s12, .L7+24
  89 004c 27EE067A 		vmul.f32	s14, s14, s12
  90              		.loc 1 19 6 view .LVU25
  91 0050 87EE016A 		vdiv.f32	s12, s14, s2
  92              	.LVL3:
  20:Core/Src/Drivers/Src/Controller.c ****   pre_error = error;
  93              		.loc 1 20 3 is_stmt 1 view .LVU26
  94              		.loc 1 20 13 is_stmt 0 view .LVU27
  95 0054 83ED000A 		vstr.32	s0, [r3]
ARM GAS  C:\Users\Lamp\AppData\Local\Temp\cc7SDzZc.s 			page 3


  21:Core/Src/Drivers/Src/Controller.c **** 
  22:Core/Src/Drivers/Src/Controller.c ****   int64_t uout = (int64_t)(up + ui + ud);
  96              		.loc 1 22 3 is_stmt 1 view .LVU28
  97              		.loc 1 22 31 is_stmt 0 view .LVU29
  98 0058 77EEA67A 		vadd.f32	s15, s15, s13
  99              		.loc 1 22 11 view .LVU30
 100 005c 77EE867A 		vadd.f32	s15, s15, s12
 101 0060 17EE900A 		vmov	r0, s15
 102 0064 FFF7FEFF 		bl	__aeabi_f2lz
 103              	.LVL4:
 104              		.loc 1 22 11 view .LVU31
 105 0068 0346     		mov	r3, r0
 106 006a 0A46     		mov	r2, r1
 107              	.LVL5:
  23:Core/Src/Drivers/Src/Controller.c **** 
  24:Core/Src/Drivers/Src/Controller.c ****   if (uout > Hlim)  pwm = Hlim;
 108              		.loc 1 24 3 is_stmt 1 view .LVU32
 109              		.loc 1 24 6 is_stmt 0 view .LVU33
 110 006c 40F2E934 		movw	r4, #1001
 111 0070 A042     		cmp	r0, r4
 112 0072 71F10004 		sbcs	r4, r1, #0
 113 0076 14DA     		bge	.L3
  25:Core/Src/Drivers/Src/Controller.c ****   else if (uout < Llim) pwm = Llim;
 114              		.loc 1 25 8 is_stmt 1 view .LVU34
 115              		.loc 1 25 11 is_stmt 0 view .LVU35
 116 0078 10F57A7F 		cmn	r0, #1000
 117 007c 71F1FF34 		sbcs	r4, r1, #-1
 118 0080 0BDB     		blt	.L6
  26:Core/Src/Drivers/Src/Controller.c ****   else pwm = uout;
 119              		.loc 1 26 12 view .LVU36
 120 0082 0446     		mov	r4, r0
 121 0084 0D46     		mov	r5, r1
 122              	.L2:
 123              	.LVL6:
  27:Core/Src/Drivers/Src/Controller.c **** 
  28:Core/Src/Drivers/Src/Controller.c ****   errorReset = pwm - uout;
 124              		.loc 1 28 3 is_stmt 1 view .LVU37
 125              		.loc 1 28 20 is_stmt 0 view .LVU38
 126 0086 E01A     		subs	r0, r4, r3
 127              	.LVL7:
 128              		.loc 1 28 14 view .LVU39
 129 0088 65EB0201 		sbc	r1, r5, r2
 130              	.LVL8:
 131              		.loc 1 28 14 view .LVU40
 132 008c FFF7FEFF 		bl	__aeabi_l2f
 133              	.LVL9:
 134              		.loc 1 28 14 view .LVU41
 135 0090 084B     		ldr	r3, .L7+8
 136 0092 1860     		str	r0, [r3]	@ float
  29:Core/Src/Drivers/Src/Controller.c **** 
  30:Core/Src/Drivers/Src/Controller.c ****   return pwm;
 137              		.loc 1 30 3 is_stmt 1 view .LVU42
  31:Core/Src/Drivers/Src/Controller.c **** }
 138              		.loc 1 31 1 is_stmt 0 view .LVU43
 139 0094 2046     		mov	r0, r4
 140 0096 2946     		mov	r1, r5
 141 0098 38BD     		pop	{r3, r4, r5, pc}
ARM GAS  C:\Users\Lamp\AppData\Local\Temp\cc7SDzZc.s 			page 4


 142              	.LVL10:
 143              	.L6:
  25:Core/Src/Drivers/Src/Controller.c ****   else pwm = uout;
 144              		.loc 1 25 29 discriminator 1 view .LVU44
 145 009a 0B4C     		ldr	r4, .L7+28
 146 009c 4FF0FF35 		mov	r5, #-1
 147 00a0 F1E7     		b	.L2
 148              	.L3:
  24:Core/Src/Drivers/Src/Controller.c ****   else if (uout < Llim) pwm = Llim;
 149              		.loc 1 24 25 discriminator 1 view .LVU45
 150 00a2 4FF47A74 		mov	r4, #1000
 151 00a6 0025     		movs	r5, #0
 152 00a8 EDE7     		b	.L2
 153              	.L8:
 154 00aa 00BF     		.align	2
 155              	.L7:
 156 00ac 44FA2C41 		.word	1093466692
 157 00b0 D70AE843 		.word	1139280599
 158 00b4 00000000 		.word	errorReset.5
 159 00b8 D7B42B42 		.word	1110160599
 160 00bc 00000000 		.word	ui.4
 161 00c0 00000000 		.word	pre_error.3
 162 00c4 00000000 		.word	0
 163 00c8 18FCFFFF 		.word	-1000
 164              		.cfi_endproc
 165              	.LFE134:
 167              		.section	.text.PID_Pos,"ax",%progbits
 168              		.align	1
 169              		.global	PID_Pos
 170              		.syntax unified
 171              		.thumb
 172              		.thumb_func
 174              	PID_Pos:
 175              	.LVL11:
 176              	.LFB135:
  32:Core/Src/Drivers/Src/Controller.c **** 
  33:Core/Src/Drivers/Src/Controller.c **** int64_t PID_Pos(float SetPoint, float CurrentValue, float Ts) {
 177              		.loc 1 33 63 is_stmt 1 view -0
 178              		.cfi_startproc
 179              		@ args = 0, pretend = 0, frame = 0
 180              		@ frame_needed = 0, uses_anonymous_args = 0
 181              		.loc 1 33 63 is_stmt 0 view .LVU47
 182 0000 38B5     		push	{r3, r4, r5, lr}
 183              	.LCFI1:
 184              		.cfi_def_cfa_offset 16
 185              		.cfi_offset 3, -16
 186              		.cfi_offset 4, -12
 187              		.cfi_offset 5, -8
 188              		.cfi_offset 14, -4
  34:Core/Src/Drivers/Src/Controller.c ****   float error = SetPoint - CurrentValue;
 189              		.loc 1 34 3 is_stmt 1 view .LVU48
 190              		.loc 1 34 9 is_stmt 0 view .LVU49
 191 0002 30EE600A 		vsub.f32	s0, s0, s1
 192              	.LVL12:
  35:Core/Src/Drivers/Src/Controller.c ****   float up = 0, ud = 0;
 193              		.loc 1 35 3 is_stmt 1 view .LVU50
  36:Core/Src/Drivers/Src/Controller.c ****   static float ui, errorReset, pre_error;
ARM GAS  C:\Users\Lamp\AppData\Local\Temp\cc7SDzZc.s 			page 5


 194              		.loc 1 36 3 view .LVU51
  37:Core/Src/Drivers/Src/Controller.c ****   int64_t pwm;
 195              		.loc 1 37 3 view .LVU52
  38:Core/Src/Drivers/Src/Controller.c **** 
  39:Core/Src/Drivers/Src/Controller.c ****   int64_t Hlim = 900;
 196              		.loc 1 39 3 view .LVU53
  40:Core/Src/Drivers/Src/Controller.c ****   int64_t Llim = -900;
 197              		.loc 1 40 3 view .LVU54
  41:Core/Src/Drivers/Src/Controller.c **** 
  42:Core/Src/Drivers/Src/Controller.c ****   float Kp = 1144.3917;
 198              		.loc 1 42 3 view .LVU55
  43:Core/Src/Drivers/Src/Controller.c ****   float Ki = 9281.6948;
 199              		.loc 1 43 3 view .LVU56
  44:Core/Src/Drivers/Src/Controller.c ****   float Kd = 21.6222;
 200              		.loc 1 44 3 view .LVU57
  45:Core/Src/Drivers/Src/Controller.c ****   float Kb = 20.7187;
 201              		.loc 1 45 3 view .LVU58
  46:Core/Src/Drivers/Src/Controller.c **** 
  47:Core/Src/Drivers/Src/Controller.c ****   up = Kp * error;
 202              		.loc 1 47 3 view .LVU59
 203              		.loc 1 47 6 is_stmt 0 view .LVU60
 204 0006 DFED296A 		vldr.32	s13, .L15
 205 000a 60EE266A 		vmul.f32	s13, s0, s13
 206              	.LVL13:
  48:Core/Src/Drivers/Src/Controller.c ****   ui += Ki*error*Ts + Kb*errorReset*Ts;
 207              		.loc 1 48 3 is_stmt 1 view .LVU61
 208              		.loc 1 48 11 is_stmt 0 view .LVU62
 209 000e DFED287A 		vldr.32	s15, .L15+4
 210 0012 60EE277A 		vmul.f32	s15, s0, s15
 211              		.loc 1 48 17 view .LVU63
 212 0016 67EE817A 		vmul.f32	s15, s15, s2
 213              		.loc 1 48 25 view .LVU64
 214 001a 264B     		ldr	r3, .L15+8
 215 001c 93ED007A 		vldr.32	s14, [r3]
 216 0020 9FED256A 		vldr.32	s12, .L15+12
 217 0024 27EE067A 		vmul.f32	s14, s14, s12
 218              		.loc 1 48 36 view .LVU65
 219 0028 27EE017A 		vmul.f32	s14, s14, s2
 220              		.loc 1 48 21 view .LVU66
 221 002c 77EE877A 		vadd.f32	s15, s15, s14
 222              		.loc 1 48 6 view .LVU67
 223 0030 224B     		ldr	r3, .L15+16
 224 0032 93ED007A 		vldr.32	s14, [r3]
 225 0036 77EE877A 		vadd.f32	s15, s15, s14
 226 003a C3ED007A 		vstr.32	s15, [r3]
  49:Core/Src/Drivers/Src/Controller.c ****   ud = Kd*(error - pre_error)/Ts;
 227              		.loc 1 49 3 is_stmt 1 view .LVU68
 228              		.loc 1 49 18 is_stmt 0 view .LVU69
 229 003e 204B     		ldr	r3, .L15+20
 230 0040 93ED007A 		vldr.32	s14, [r3]
 231 0044 30EE477A 		vsub.f32	s14, s0, s14
 232              		.loc 1 49 10 view .LVU70
 233 0048 9FED1E6A 		vldr.32	s12, .L15+24
 234 004c 27EE067A 		vmul.f32	s14, s14, s12
 235              		.loc 1 49 6 view .LVU71
 236 0050 87EE016A 		vdiv.f32	s12, s14, s2
 237              	.LVL14:
ARM GAS  C:\Users\Lamp\AppData\Local\Temp\cc7SDzZc.s 			page 6


  50:Core/Src/Drivers/Src/Controller.c ****   pre_error = error;
 238              		.loc 1 50 3 is_stmt 1 view .LVU72
 239              		.loc 1 50 13 is_stmt 0 view .LVU73
 240 0054 83ED000A 		vstr.32	s0, [r3]
  51:Core/Src/Drivers/Src/Controller.c **** 
  52:Core/Src/Drivers/Src/Controller.c ****   int64_t uout = (int64_t)(up + ui + ud);
 241              		.loc 1 52 3 is_stmt 1 view .LVU74
 242              		.loc 1 52 31 is_stmt 0 view .LVU75
 243 0058 77EEA67A 		vadd.f32	s15, s15, s13
 244              		.loc 1 52 11 view .LVU76
 245 005c 77EE867A 		vadd.f32	s15, s15, s12
 246 0060 17EE900A 		vmov	r0, s15
 247 0064 FFF7FEFF 		bl	__aeabi_f2lz
 248              	.LVL15:
 249              		.loc 1 52 11 view .LVU77
 250 0068 0346     		mov	r3, r0
 251 006a 0A46     		mov	r2, r1
 252              	.LVL16:
  53:Core/Src/Drivers/Src/Controller.c **** 
  54:Core/Src/Drivers/Src/Controller.c ****   if (uout > Hlim)  pwm = Hlim;
 253              		.loc 1 54 3 is_stmt 1 view .LVU78
 254              		.loc 1 54 6 is_stmt 0 view .LVU79
 255 006c 40F28534 		movw	r4, #901
 256 0070 A042     		cmp	r0, r4
 257 0072 71F10004 		sbcs	r4, r1, #0
 258 0076 14DA     		bge	.L11
  55:Core/Src/Drivers/Src/Controller.c ****   else if (uout < Llim) pwm = Llim;
 259              		.loc 1 55 8 is_stmt 1 view .LVU80
 260              		.loc 1 55 11 is_stmt 0 view .LVU81
 261 0078 10F5617F 		cmn	r0, #900
 262 007c 71F1FF34 		sbcs	r4, r1, #-1
 263 0080 0BDB     		blt	.L14
  56:Core/Src/Drivers/Src/Controller.c ****   else pwm = uout;
 264              		.loc 1 56 12 view .LVU82
 265 0082 0446     		mov	r4, r0
 266 0084 0D46     		mov	r5, r1
 267              	.L10:
 268              	.LVL17:
  57:Core/Src/Drivers/Src/Controller.c **** 
  58:Core/Src/Drivers/Src/Controller.c ****   errorReset = pwm - uout;
 269              		.loc 1 58 3 is_stmt 1 view .LVU83
 270              		.loc 1 58 20 is_stmt 0 view .LVU84
 271 0086 E01A     		subs	r0, r4, r3
 272              	.LVL18:
 273              		.loc 1 58 14 view .LVU85
 274 0088 65EB0201 		sbc	r1, r5, r2
 275              	.LVL19:
 276              		.loc 1 58 14 view .LVU86
 277 008c FFF7FEFF 		bl	__aeabi_l2f
 278              	.LVL20:
 279              		.loc 1 58 14 view .LVU87
 280 0090 084B     		ldr	r3, .L15+8
 281 0092 1860     		str	r0, [r3]	@ float
  59:Core/Src/Drivers/Src/Controller.c **** 
  60:Core/Src/Drivers/Src/Controller.c ****   return pwm;
 282              		.loc 1 60 3 is_stmt 1 view .LVU88
  61:Core/Src/Drivers/Src/Controller.c **** }
ARM GAS  C:\Users\Lamp\AppData\Local\Temp\cc7SDzZc.s 			page 7


 283              		.loc 1 61 1 is_stmt 0 view .LVU89
 284 0094 2046     		mov	r0, r4
 285 0096 2946     		mov	r1, r5
 286 0098 38BD     		pop	{r3, r4, r5, pc}
 287              	.LVL21:
 288              	.L14:
  55:Core/Src/Drivers/Src/Controller.c ****   else pwm = uout;
 289              		.loc 1 55 29 discriminator 1 view .LVU90
 290 009a 0B4C     		ldr	r4, .L15+28
 291 009c 4FF0FF35 		mov	r5, #-1
 292 00a0 F1E7     		b	.L10
 293              	.L11:
  54:Core/Src/Drivers/Src/Controller.c ****   else if (uout < Llim) pwm = Llim;
 294              		.loc 1 54 25 discriminator 1 view .LVU91
 295 00a2 4FF46174 		mov	r4, #900
 296 00a6 0025     		movs	r5, #0
 297 00a8 EDE7     		b	.L10
 298              	.L16:
 299 00aa 00BF     		.align	2
 300              	.L15:
 301 00ac 890C8F44 		.word	1150225545
 302 00b0 C7061146 		.word	1175520967
 303 00b4 00000000 		.word	errorReset.2
 304 00b8 E6BFA541 		.word	1101381606
 305 00bc 00000000 		.word	ui.1
 306 00c0 00000000 		.word	pre_error.0
 307 00c4 44FAAC41 		.word	1101855300
 308 00c8 7CFCFFFF 		.word	-900
 309              		.cfi_endproc
 310              	.LFE135:
 312              		.section	.bss.pre_error.0,"aw",%nobits
 313              		.align	2
 316              	pre_error.0:
 317 0000 00000000 		.space	4
 318              		.section	.bss.ui.1,"aw",%nobits
 319              		.align	2
 322              	ui.1:
 323 0000 00000000 		.space	4
 324              		.section	.bss.errorReset.2,"aw",%nobits
 325              		.align	2
 328              	errorReset.2:
 329 0000 00000000 		.space	4
 330              		.section	.bss.pre_error.3,"aw",%nobits
 331              		.align	2
 334              	pre_error.3:
 335 0000 00000000 		.space	4
 336              		.section	.bss.ui.4,"aw",%nobits
 337              		.align	2
 340              	ui.4:
 341 0000 00000000 		.space	4
 342              		.section	.bss.errorReset.5,"aw",%nobits
 343              		.align	2
 346              	errorReset.5:
 347 0000 00000000 		.space	4
 348              		.text
 349              	.Letext0:
 350              		.file 2 "C:/ARM GNU Toolchain/arm-none-eabi/include/machine/_default_types.h"
ARM GAS  C:\Users\Lamp\AppData\Local\Temp\cc7SDzZc.s 			page 8


 351              		.file 3 "C:/ARM GNU Toolchain/arm-none-eabi/include/sys/_stdint.h"
ARM GAS  C:\Users\Lamp\AppData\Local\Temp\cc7SDzZc.s 			page 9

