ARM GAS  C:\Users\Lamp\AppData\Local\Temp\cc274b39.s 			page 1


   1              		.cpu cortex-m4
   2              		.arch armv7e-m
   3              		.fpu fpv4-sp-d16
   4              		.eabi_attribute 27, 1
   5              		.eabi_attribute 28, 1
   6              		.eabi_attribute 20, 1
   7              		.eabi_attribute 21, 1
   8              		.eabi_attribute 23, 3
   9              		.eabi_attribute 24, 1
  10              		.eabi_attribute 25, 1
  11              		.eabi_attribute 26, 1
  12              		.eabi_attribute 30, 1
  13              		.eabi_attribute 34, 1
  14              		.eabi_attribute 18, 4
  15              		.file	"main.c"
  16              		.text
  17              	.Ltext0:
  18              		.cfi_sections	.debug_frame
  19              		.file 1 "Core/Src/main.c"
  20              		.section	.rodata.MainTask.str1.4,"aMS",%progbits,1
  21              		.align	2
  22              	.LC0:
  23 0000 4E31204F 		.ascii	"N1 O d%d\012\000"
  23      20642564 
  23      0A00
  24              		.global	__aeabi_f2d
  25 000a 0000     		.align	2
  26              	.LC1:
  27 000c 5325302E 		.ascii	"S%0.6f %0.6f %0.6f %0.6f\012\000"
  27      36662025 
  27      302E3666 
  27      2025302E 
  27      36662025 
  28              		.section	.text.MainTask,"ax",%progbits
  29              		.align	1
  30              		.global	MainTask
  31              		.syntax unified
  32              		.thumb
  33              		.thumb_func
  35              	MainTask:
  36              	.LFB175:
   1:Core/Src/main.c **** #include "main.h"
   2:Core/Src/main.c **** #include "FreeRTOS.h"
   3:Core/Src/main.c **** #include "task.h"
   4:Core/Src/main.c **** #include "queue.h"
   5:Core/Src/main.c **** #include "semphr.h"
   6:Core/Src/main.c **** 
   7:Core/Src/main.c **** QueueHandle_t CommuniQueue;
   8:Core/Src/main.c **** SemaphoreHandle_t CommuniSemaphore;
   9:Core/Src/main.c **** 
  10:Core/Src/main.c **** extern TIM_HandleTypeDef htim2;
  11:Core/Src/main.c **** extern TIM_HandleTypeDef htim3;
  12:Core/Src/main.c **** 
  13:Core/Src/main.c **** extern UART_HandleTypeDef huart2;
  14:Core/Src/main.c **** extern UART_HandleTypeDef huart3;
  15:Core/Src/main.c **** 
  16:Core/Src/main.c **** 
ARM GAS  C:\Users\Lamp\AppData\Local\Temp\cc274b39.s 			page 2


  17:Core/Src/main.c **** 
  18:Core/Src/main.c **** extern Encoder encoder_topic;
  19:Core/Src/main.c **** struct DSP * data_processor;
  20:Core/Src/main.c **** State state_topic = {.Motor = {0.0f}, .Cart = {0.0f}, .Pendulum = {0.0f}};
  21:Core/Src/main.c **** 
  22:Core/Src/main.c **** int64_t DutyCycle = 0;
  23:Core/Src/main.c **** 
  24:Core/Src/main.c **** /**
  25:Core/Src/main.c ****  * 
  26:Core/Src/main.c ****  */
  27:Core/Src/main.c **** void MainTask(void * xTaskParameters) {
  37              		.loc 1 27 39 view -0
  38              		.cfi_startproc
  39              		@ Volatile: function does not return.
  40              		@ args = 0, pretend = 0, frame = 200
  41              		@ frame_needed = 0, uses_anonymous_args = 0
  42              	.LVL0:
  43              		.loc 1 27 39 is_stmt 0 view .LVU1
  44 0000 80B5     		push	{r7, lr}
  45              	.LCFI0:
  46              		.cfi_def_cfa_offset 8
  47              		.cfi_offset 7, -8
  48              		.cfi_offset 14, -4
  49 0002 B8B0     		sub	sp, sp, #224
  50              	.LCFI1:
  51              		.cfi_def_cfa_offset 232
  52              	.LVL1:
  53              	.L2:
  28:Core/Src/main.c **** 
  29:Core/Src/main.c ****   for(;;) {    
  54              		.loc 1 29 3 is_stmt 1 discriminator 1 view .LVU2
  55              	.LBB2:
  30:Core/Src/main.c **** 
  31:Core/Src/main.c **** 
  32:Core/Src/main.c ****     /* Cấp phát động bộ đệm */
  33:Core/Src/main.c ****     data_processor->procesNewData(data_processor, &encoder_topic, &state_topic);
  56              		.loc 1 33 5 discriminator 1 view .LVU3
  57              		.loc 1 33 19 is_stmt 0 discriminator 1 view .LVU4
  58 0004 1C4B     		ldr	r3, .L4
  59 0006 1868     		ldr	r0, [r3]
  60 0008 D0F88030 		ldr	r3, [r0, #128]
  61              		.loc 1 33 5 discriminator 1 view .LVU5
  62 000c 1B4C     		ldr	r4, .L4+4
  63 000e 2246     		mov	r2, r4
  64 0010 1B49     		ldr	r1, .L4+8
  65 0012 9847     		blx	r3
  66              	.LVL2:
  34:Core/Src/main.c **** 
  35:Core/Src/main.c ****     // DutyCycle = PID_Pos(xdesign, ThetaCart, Ts);
  36:Core/Src/main.c ****     char SIG[100];
  67              		.loc 1 36 5 is_stmt 1 discriminator 1 view .LVU6
  37:Core/Src/main.c ****     sprintf(SIG, "N1 O d%d\n", DutyCycle);
  68              		.loc 1 37 5 discriminator 1 view .LVU7
  69 0014 1B4B     		ldr	r3, .L4+12
  70 0016 D3E90023 		ldrd	r2, [r3]
  71 001a 1B49     		ldr	r1, .L4+16
  72 001c 06A8     		add	r0, sp, #24
ARM GAS  C:\Users\Lamp\AppData\Local\Temp\cc274b39.s 			page 3


  73 001e FFF7FEFF 		bl	sprintf_
  74              	.LVL3:
  38:Core/Src/main.c ****     SendBuffer(&huart2, SIG);
  75              		.loc 1 38 5 discriminator 1 view .LVU8
  76 0022 06A9     		add	r1, sp, #24
  77 0024 1948     		ldr	r0, .L4+20
  78 0026 FFF7FEFF 		bl	SendBuffer
  79              	.LVL4:
  39:Core/Src/main.c **** 
  40:Core/Src/main.c ****     /* Buffer dùng để truyền dữ liệu cho Matlab*/
  41:Core/Src/main.c ****     char buffer[100];
  80              		.loc 1 41 5 discriminator 1 view .LVU9
  42:Core/Src/main.c ****     sprintf(buffer,
  81              		.loc 1 42 5 discriminator 1 view .LVU10
  43:Core/Src/main.c ****             "S%0.6f %0.6f %0.6f %0.6f\n",
  44:Core/Src/main.c ****             state_topic.Cart.position,
  45:Core/Src/main.c ****             state_topic.Cart.velocity,
  82              		.loc 1 45 29 is_stmt 0 discriminator 1 view .LVU11
  83 002a 6669     		ldr	r6, [r4, #20]	@ float
  46:Core/Src/main.c ****             state_topic.Pendulum.position,
  84              		.loc 1 46 33 discriminator 1 view .LVU12
  85 002c 276A     		ldr	r7, [r4, #32]	@ float
  47:Core/Src/main.c ****             state_topic.Pendulum.velocity);
  86              		.loc 1 47 33 discriminator 1 view .LVU13
  87 002e D4F82480 		ldr	r8, [r4, #36]	@ float
  42:Core/Src/main.c ****             "S%0.6f %0.6f %0.6f %0.6f\n",
  88              		.loc 1 42 5 discriminator 1 view .LVU14
  89 0032 2069     		ldr	r0, [r4, #16]	@ float
  90 0034 FFF7FEFF 		bl	__aeabi_f2d
  91              	.LVL5:
  92 0038 0446     		mov	r4, r0
  93 003a 0D46     		mov	r5, r1
  94 003c 4046     		mov	r0, r8	@ float
  95 003e FFF7FEFF 		bl	__aeabi_f2d
  96              	.LVL6:
  97 0042 CDE90401 		strd	r0, [sp, #16]
  98 0046 3846     		mov	r0, r7	@ float
  99 0048 FFF7FEFF 		bl	__aeabi_f2d
 100              	.LVL7:
 101 004c CDE90201 		strd	r0, [sp, #8]
 102 0050 3046     		mov	r0, r6	@ float
 103 0052 FFF7FEFF 		bl	__aeabi_f2d
 104              	.LVL8:
 105 0056 CDE90001 		strd	r0, [sp]
 106 005a 2246     		mov	r2, r4
 107 005c 2B46     		mov	r3, r5
 108 005e 0C49     		ldr	r1, .L4+24
 109 0060 1FA8     		add	r0, sp, #124
 110 0062 FFF7FEFF 		bl	sprintf_
 111              	.LVL9:
  48:Core/Src/main.c **** 
  49:Core/Src/main.c ****     SendBuffer(&huart3, buffer);
 112              		.loc 1 49 5 is_stmt 1 discriminator 1 view .LVU15
 113 0066 1FA9     		add	r1, sp, #124
 114 0068 0A48     		ldr	r0, .L4+28
 115 006a FFF7FEFF 		bl	SendBuffer
 116              	.LVL10:
ARM GAS  C:\Users\Lamp\AppData\Local\Temp\cc274b39.s 			page 4


  50:Core/Src/main.c **** 
  51:Core/Src/main.c ****     // xQueueSendToBack(CommuniQueue, buffer, portMAX_DELAY);
  52:Core/Src/main.c ****     // xSemaphoreGive(CommuniSemaphore);
  53:Core/Src/main.c ****     vTaskDelay(pdMS_TO_TICKS(1));
 117              		.loc 1 53 5 discriminator 1 view .LVU16
 118 006e 0120     		movs	r0, #1
 119 0070 FFF7FEFF 		bl	vTaskDelay
 120              	.LVL11:
 121              	.LBE2:
  29:Core/Src/main.c **** 
 122              		.loc 1 29 3 discriminator 1 view .LVU17
 123 0074 C6E7     		b	.L2
 124              	.L5:
 125 0076 00BF     		.align	2
 126              	.L4:
 127 0078 00000000 		.word	data_processor
 128 007c 00000000 		.word	state_topic
 129 0080 00000000 		.word	encoder_topic
 130 0084 00000000 		.word	DutyCycle
 131 0088 00000000 		.word	.LC0
 132 008c 00000000 		.word	huart2
 133 0090 0C000000 		.word	.LC1
 134 0094 00000000 		.word	huart3
 135              		.cfi_endproc
 136              	.LFE175:
 138              		.section	.text.CommunicationTask,"ax",%progbits
 139              		.align	1
 140              		.global	CommunicationTask
 141              		.syntax unified
 142              		.thumb
 143              		.thumb_func
 145              	CommunicationTask:
 146              	.LFB176:
  54:Core/Src/main.c ****   }
  55:Core/Src/main.c **** }
  56:Core/Src/main.c **** 
  57:Core/Src/main.c **** /**
  58:Core/Src/main.c ****  * 
  59:Core/Src/main.c ****  */
  60:Core/Src/main.c **** char buffer[100];
  61:Core/Src/main.c **** void CommunicationTask(void * xTaskParameters) {
 147              		.loc 1 61 48 view -0
 148              		.cfi_startproc
 149              		@ Volatile: function does not return.
 150              		@ args = 0, pretend = 0, frame = 0
 151              		@ frame_needed = 0, uses_anonymous_args = 0
 152              	.LVL12:
 153              		.loc 1 61 48 is_stmt 0 view .LVU19
 154 0000 08B5     		push	{r3, lr}
 155              	.LCFI2:
 156              		.cfi_def_cfa_offset 8
 157              		.cfi_offset 3, -8
 158              		.cfi_offset 14, -4
 159              	.LVL13:
 160              	.L7:
  62:Core/Src/main.c ****   for(;;) {
 161              		.loc 1 62 3 is_stmt 1 view .LVU20
ARM GAS  C:\Users\Lamp\AppData\Local\Temp\cc274b39.s 			page 5


  63:Core/Src/main.c ****     if (xQueueReceive(CommuniQueue, buffer, portMAX_DELAY) == pdTRUE) {
 162              		.loc 1 63 5 view .LVU21
 163              		.loc 1 63 9 is_stmt 0 view .LVU22
 164 0002 4FF0FF32 		mov	r2, #-1
 165 0006 0649     		ldr	r1, .L10
 166 0008 064B     		ldr	r3, .L10+4
 167 000a 1868     		ldr	r0, [r3]
 168 000c FFF7FEFF 		bl	xQueueReceive
 169              	.LVL14:
 170              		.loc 1 63 8 view .LVU23
 171 0010 0128     		cmp	r0, #1
 172 0012 F6D1     		bne	.L7
  64:Core/Src/main.c ****       SendBuffer(&huart3, buffer);
 173              		.loc 1 64 7 is_stmt 1 view .LVU24
 174 0014 0249     		ldr	r1, .L10
 175 0016 0448     		ldr	r0, .L10+8
 176 0018 FFF7FEFF 		bl	SendBuffer
 177              	.LVL15:
 178 001c F1E7     		b	.L7
 179              	.L11:
 180 001e 00BF     		.align	2
 181              	.L10:
 182 0020 00000000 		.word	buffer
 183 0024 00000000 		.word	CommuniQueue
 184 0028 00000000 		.word	huart3
 185              		.cfi_endproc
 186              	.LFE176:
 188              		.section	.text.main,"ax",%progbits
 189              		.align	1
 190              		.global	main
 191              		.syntax unified
 192              		.thumb
 193              		.thumb_func
 195              	main:
 196              	.LFB177:
  65:Core/Src/main.c ****     }
  66:Core/Src/main.c **** 
  67:Core/Src/main.c ****     // vTaskDelay(pdMS_TO_TICKS(SAMPLE_TIME));
  68:Core/Src/main.c ****   }
  69:Core/Src/main.c **** }
  70:Core/Src/main.c **** 
  71:Core/Src/main.c **** int main(void)
  72:Core/Src/main.c **** {
 197              		.loc 1 72 1 view -0
 198              		.cfi_startproc
 199              		@ Volatile: function does not return.
 200              		@ args = 0, pretend = 0, frame = 0
 201              		@ frame_needed = 0, uses_anonymous_args = 0
 202 0000 00B5     		push	{lr}
 203              	.LCFI3:
 204              		.cfi_def_cfa_offset 4
 205              		.cfi_offset 14, -4
 206 0002 83B0     		sub	sp, sp, #12
 207              	.LCFI4:
 208              		.cfi_def_cfa_offset 16
  73:Core/Src/main.c ****   /* Configuraion */
  74:Core/Src/main.c ****   HAL_Init();
ARM GAS  C:\Users\Lamp\AppData\Local\Temp\cc274b39.s 			page 6


 209              		.loc 1 74 3 view .LVU26
 210 0004 FFF7FEFF 		bl	HAL_Init
 211              	.LVL16:
  75:Core/Src/main.c ****   SystemClock_Config();
 212              		.loc 1 75 3 view .LVU27
 213 0008 FFF7FEFF 		bl	SystemClock_Config
 214              	.LVL17:
  76:Core/Src/main.c ****   MX_GPIO_Init();
 215              		.loc 1 76 3 view .LVU28
 216 000c FFF7FEFF 		bl	MX_GPIO_Init
 217              	.LVL18:
  77:Core/Src/main.c **** 
  78:Core/Src/main.c ****   Driver_USART_Init();
 218              		.loc 1 78 3 view .LVU29
 219 0010 FFF7FEFF 		bl	Driver_USART_Init
 220              	.LVL19:
  79:Core/Src/main.c ****   Driver_Encoder_Init();
 221              		.loc 1 79 3 view .LVU30
 222 0014 FFF7FEFF 		bl	Driver_Encoder_Init
 223              	.LVL20:
  80:Core/Src/main.c **** 
  81:Core/Src/main.c ****   /* USER CODE BEGIN 2 */
  82:Core/Src/main.c **** 
  83:Core/Src/main.c ****   data_processor = (struct DSP * ) pvPortMalloc( sizeof(struct DSP) );
 224              		.loc 1 83 3 view .LVU31
 225              		.loc 1 83 36 is_stmt 0 view .LVU32
 226 0018 8420     		movs	r0, #132
 227 001a FFF7FEFF 		bl	pvPortMalloc
 228              	.LVL21:
 229              		.loc 1 83 18 view .LVU33
 230 001e 0B4B     		ldr	r3, .L15
 231 0020 1860     		str	r0, [r3]
  84:Core/Src/main.c ****   dsp_new(data_processor);
 232              		.loc 1 84 3 is_stmt 1 view .LVU34
 233 0022 FFF7FEFF 		bl	dsp_new
 234              	.LVL22:
  85:Core/Src/main.c ****   // StateSystem= (struct DSP * ) pvPortMalloc( sizeof(struct DSP) );
  86:Core/Src/main.c **** 
  87:Core/Src/main.c ****   CommuniQueue = xQueueCreate(5, sizeof(char) * 100);
 235              		.loc 1 87 3 view .LVU35
 236              		.loc 1 87 18 is_stmt 0 view .LVU36
 237 0026 0022     		movs	r2, #0
 238 0028 6421     		movs	r1, #100
 239 002a 0520     		movs	r0, #5
 240 002c FFF7FEFF 		bl	xQueueGenericCreate
 241              	.LVL23:
 242              		.loc 1 87 16 view .LVU37
 243 0030 074B     		ldr	r3, .L15+4
 244 0032 1860     		str	r0, [r3]
  88:Core/Src/main.c ****   // vSemaphoreCreateBinary(CommuniSemaphore);
  89:Core/Src/main.c **** 
  90:Core/Src/main.c ****   xTaskCreate(MainTask, NULL, configMINIMAL_STACK_SIZE, NULL, 3, NULL);
 245              		.loc 1 90 3 is_stmt 1 view .LVU38
 246 0034 0021     		movs	r1, #0
 247 0036 0191     		str	r1, [sp, #4]
 248 0038 0323     		movs	r3, #3
 249 003a 0093     		str	r3, [sp]
ARM GAS  C:\Users\Lamp\AppData\Local\Temp\cc274b39.s 			page 7


 250 003c 0B46     		mov	r3, r1
 251 003e 8222     		movs	r2, #130
 252 0040 0448     		ldr	r0, .L15+8
 253 0042 FFF7FEFF 		bl	xTaskCreate
 254              	.LVL24:
  91:Core/Src/main.c ****   // xTaskCreate(CommunicationTask, NULL, configMINIMAL_STACK_SIZE, NULL, 2, NULL);
  92:Core/Src/main.c **** 
  93:Core/Src/main.c ****   vTaskStartScheduler();
 255              		.loc 1 93 3 view .LVU39
 256 0046 FFF7FEFF 		bl	vTaskStartScheduler
 257              	.LVL25:
 258              	.L13:
  94:Core/Src/main.c **** 
  95:Core/Src/main.c ****   /* USER CODE END 2 */
  96:Core/Src/main.c **** 
  97:Core/Src/main.c ****   /* Infinite loop */
  98:Core/Src/main.c ****   while (1) {}
 259              		.loc 1 98 3 discriminator 1 view .LVU40
 260              		.loc 1 98 14 discriminator 1 view .LVU41
 261              		.loc 1 98 9 discriminator 1 view .LVU42
 262 004a FEE7     		b	.L13
 263              	.L16:
 264              		.align	2
 265              	.L15:
 266 004c 00000000 		.word	data_processor
 267 0050 00000000 		.word	CommuniQueue
 268 0054 00000000 		.word	MainTask
 269              		.cfi_endproc
 270              	.LFE177:
 272              		.global	buffer
 273              		.section	.bss.buffer,"aw",%nobits
 274              		.align	2
 277              	buffer:
 278 0000 00000000 		.space	100
 278      00000000 
 278      00000000 
 278      00000000 
 278      00000000 
 279              		.global	DutyCycle
 280              		.section	.bss.DutyCycle,"aw",%nobits
 281              		.align	3
 284              	DutyCycle:
 285 0000 00000000 		.space	8
 285      00000000 
 286              		.global	state_topic
 287              		.section	.bss.state_topic,"aw",%nobits
 288              		.align	2
 291              	state_topic:
 292 0000 00000000 		.space	48
 292      00000000 
 292      00000000 
 292      00000000 
 292      00000000 
 293              		.global	data_processor
 294              		.section	.bss.data_processor,"aw",%nobits
 295              		.align	2
 298              	data_processor:
ARM GAS  C:\Users\Lamp\AppData\Local\Temp\cc274b39.s 			page 8


 299 0000 00000000 		.space	4
 300              		.global	CommuniSemaphore
 301              		.section	.bss.CommuniSemaphore,"aw",%nobits
 302              		.align	2
 305              	CommuniSemaphore:
 306 0000 00000000 		.space	4
 307              		.global	CommuniQueue
 308              		.section	.bss.CommuniQueue,"aw",%nobits
 309              		.align	2
 312              	CommuniQueue:
 313 0000 00000000 		.space	4
 314              		.text
 315              	.Letext0:
 316              		.file 2 "C:\\ST\\STM32CubeCLT_1.16.0\\GNU-tools-for-STM32\\bin\\../lib/gcc/arm-none-eabi/12.3.1/..
 317              		.file 3 "C:\\ST\\STM32CubeCLT_1.16.0\\GNU-tools-for-STM32\\bin\\../lib/gcc/arm-none-eabi/12.3.1/..
 318              		.file 4 "Drivers/CMSIS/Device/ST/STM32F4xx/Include/stm32f407xx.h"
 319              		.file 5 "C:\\ST\\STM32CubeCLT_1.16.0\\GNU-tools-for-STM32\\bin\\../lib/gcc/arm-none-eabi/12.3.1/in
 320              		.file 6 "Drivers/STM32F4xx_HAL_Driver/Inc/stm32f4xx_hal_def.h"
 321              		.file 7 "Drivers/STM32F4xx_HAL_Driver/Inc/stm32f4xx_hal_dma.h"
 322              		.file 8 "Drivers/STM32F4xx_HAL_Driver/Inc/stm32f4xx_hal_uart.h"
 323              		.file 9 "Drivers/CMSIS/DSP/Include/arm_math.h"
 324              		.file 10 "Core/Src/Middleware/Topic.h"
 325              		.file 11 "ThirdParty/FreeRTOS/include/projdefs.h"
 326              		.file 12 "ThirdParty/FreeRTOS/portable/GCC/ARM_CM4F/portmacro.h"
 327              		.file 13 "Core/Src/Middleware/dsp.h"
 328              		.file 14 "ThirdParty/FreeRTOS/include/task.h"
 329              		.file 15 "ThirdParty/FreeRTOS/include/queue.h"
 330              		.file 16 "ThirdParty/FreeRTOS/include/semphr.h"
 331              		.file 17 "ThirdParty/FreeRTOS/include/portable.h"
 332              		.file 18 "Core/Src/Drivers/Inc/encoder.h"
 333              		.file 19 "Core/Src/Drivers/Inc/usart.h"
 334              		.file 20 "Core/Src/Drivers/Inc/SysConfig.h"
 335              		.file 21 "Core/Inc/printf.h"
 336              		.file 22 "Drivers/STM32F4xx_HAL_Driver/Inc/stm32f4xx_hal.h"
ARM GAS  C:\Users\Lamp\AppData\Local\Temp\cc274b39.s 			page 9

