ARM GAS  C:\Users\Lamp\AppData\Local\Temp\cc55vlg1.s 			page 1


   1              		.cpu cortex-m4
   2              		.arch armv7e-m
   3              		.fpu fpv4-sp-d16
   4              		.eabi_attribute 27, 1
   5              		.eabi_attribute 28, 1
   6              		.eabi_attribute 20, 1
   7              		.eabi_attribute 21, 1
   8              		.eabi_attribute 23, 3
   9              		.eabi_attribute 24, 1
  10              		.eabi_attribute 25, 1
  11              		.eabi_attribute 26, 1
  12              		.eabi_attribute 30, 1
  13              		.eabi_attribute 34, 1
  14              		.eabi_attribute 18, 4
  15              		.file	"main.c"
  16              		.text
  17              	.Ltext0:
  18              		.cfi_sections	.debug_frame
  19              		.file 1 "Core/Src/main.c"
  20              		.section	.text.main,"ax",%progbits
  21              		.align	1
  22              		.global	main
  23              		.syntax unified
  24              		.thumb
  25              		.thumb_func
  27              	main:
  28              	.LFB175:
   1:Core/Src/main.c **** #include "main.h"
   2:Core/Src/main.c **** #include "FreeRTOS.h"
   3:Core/Src/main.c **** #include "task.h"
   4:Core/Src/main.c **** #include "queue.h"
   5:Core/Src/main.c **** 
   6:Core/Src/main.c **** static struct Computer computer;
   7:Core/Src/main.c **** static struct Active * computer_AO = &computer.super;
   8:Core/Src/main.c **** 
   9:Core/Src/main.c **** static struct Estimator estimator;
  10:Core/Src/main.c **** static struct Active * estimator_AO = &estimator.super;
  11:Core/Src/main.c **** 
  12:Core/Src/main.c **** static struct Motor motor;
  13:Core/Src/main.c **** static struct Active * motor_AO = &motor.super;
  14:Core/Src/main.c **** 
  15:Core/Src/main.c **** int main (void) {
  29              		.loc 1 15 17 view -0
  30              		.cfi_startproc
  31              		@ args = 0, pretend = 0, frame = 0
  32              		@ frame_needed = 0, uses_anonymous_args = 0
  33 0000 38B5     		push	{r3, r4, r5, lr}
  34              	.LCFI0:
  35              		.cfi_def_cfa_offset 16
  36              		.cfi_offset 3, -16
  37              		.cfi_offset 4, -12
  38              		.cfi_offset 5, -8
  39              		.cfi_offset 14, -4
  16:Core/Src/main.c ****   HAL_Init();
  40              		.loc 1 16 3 view .LVU1
  41 0002 FFF7FEFF 		bl	HAL_Init
  42              	.LVL0:
ARM GAS  C:\Users\Lamp\AppData\Local\Temp\cc55vlg1.s 			page 2


  17:Core/Src/main.c ****   SystemClock_Config();
  43              		.loc 1 17 3 view .LVU2
  44 0006 FFF7FEFF 		bl	SystemClock_Config
  45              	.LVL1:
  18:Core/Src/main.c ****   MX_GPIO_Init();
  46              		.loc 1 18 3 view .LVU3
  47 000a FFF7FEFF 		bl	MX_GPIO_Init
  48              	.LVL2:
  19:Core/Src/main.c **** 
  20:Core/Src/main.c ****   Driver_USART_Init();
  49              		.loc 1 20 3 view .LVU4
  50 000e FFF7FEFF 		bl	Driver_USART_Init
  51              	.LVL3:
  21:Core/Src/main.c ****   Driver_Encoder_Init();
  52              		.loc 1 21 3 view .LVU5
  53 0012 FFF7FEFF 		bl	Driver_Encoder_Init
  54              	.LVL4:
  22:Core/Src/main.c **** 
  23:Core/Src/main.c ****   Computer.new(&computer);
  55              		.loc 1 23 3 view .LVU6
  56              		.loc 1 23 11 is_stmt 0 view .LVU7
  57 0016 154B     		ldr	r3, .L3
  58 0018 1B68     		ldr	r3, [r3]
  59              		.loc 1 23 3 view .LVU8
  60 001a 154C     		ldr	r4, .L3+4
  61 001c 2046     		mov	r0, r4
  62 001e 9847     		blx	r3
  63              	.LVL5:
  24:Core/Src/main.c ****   computer.super.start(computer_AO, 1, 15, 1000);
  64              		.loc 1 24 3 is_stmt 1 view .LVU9
  65              		.loc 1 24 17 is_stmt 0 view .LVU10
  66 0020 D4F8BC50 		ldr	r5, [r4, #188]
  67              		.loc 1 24 3 view .LVU11
  68 0024 4FF47A73 		mov	r3, #1000
  69 0028 0F22     		movs	r2, #15
  70 002a 0121     		movs	r1, #1
  71 002c 2046     		mov	r0, r4
  72 002e A847     		blx	r5
  73              	.LVL6:
  25:Core/Src/main.c **** 
  26:Core/Src/main.c ****   Estimator.new(&estimator);
  74              		.loc 1 26 3 is_stmt 1 view .LVU12
  75              		.loc 1 26 12 is_stmt 0 view .LVU13
  76 0030 104B     		ldr	r3, .L3+8
  77 0032 1B68     		ldr	r3, [r3]
  78              		.loc 1 26 3 view .LVU14
  79 0034 104C     		ldr	r4, .L3+12
  80 0036 2046     		mov	r0, r4
  81 0038 9847     		blx	r3
  82              	.LVL7:
  27:Core/Src/main.c ****   estimator.super.start(estimator_AO, 2, 20, 3000);
  83              		.loc 1 27 3 is_stmt 1 view .LVU15
  84              		.loc 1 27 18 is_stmt 0 view .LVU16
  85 003a D4F8BC50 		ldr	r5, [r4, #188]
  86              		.loc 1 27 3 view .LVU17
  87 003e 40F6B833 		movw	r3, #3000
  88 0042 1422     		movs	r2, #20
ARM GAS  C:\Users\Lamp\AppData\Local\Temp\cc55vlg1.s 			page 3


  89 0044 0221     		movs	r1, #2
  90 0046 2046     		mov	r0, r4
  91 0048 A847     		blx	r5
  92              	.LVL8:
  28:Core/Src/main.c **** 
  29:Core/Src/main.c ****   Motor.new(&motor);
  93              		.loc 1 29 3 is_stmt 1 view .LVU18
  94              		.loc 1 29 8 is_stmt 0 view .LVU19
  95 004a 0C4B     		ldr	r3, .L3+16
  96 004c 1B68     		ldr	r3, [r3]
  97              		.loc 1 29 3 view .LVU20
  98 004e 0C4C     		ldr	r4, .L3+20
  99 0050 2046     		mov	r0, r4
 100 0052 9847     		blx	r3
 101              	.LVL9:
  30:Core/Src/main.c ****   motor.super.start(motor_AO, 3, 15, 2000);
 102              		.loc 1 30 3 is_stmt 1 view .LVU21
 103              		.loc 1 30 14 is_stmt 0 view .LVU22
 104 0054 D4F8BC50 		ldr	r5, [r4, #188]
 105              		.loc 1 30 3 view .LVU23
 106 0058 4FF4FA63 		mov	r3, #2000
 107 005c 0F22     		movs	r2, #15
 108 005e 0321     		movs	r1, #3
 109 0060 2046     		mov	r0, r4
 110 0062 A847     		blx	r5
 111              	.LVL10:
  31:Core/Src/main.c **** 
  32:Core/Src/main.c ****   vTaskStartScheduler();
 112              		.loc 1 32 3 is_stmt 1 view .LVU24
 113 0064 FFF7FEFF 		bl	vTaskStartScheduler
 114              	.LVL11:
  33:Core/Src/main.c **** }...
 115              		.loc 1 33 1 is_stmt 0 view .LVU25
 116 0068 0020     		movs	r0, #0
 117 006a 38BD     		pop	{r3, r4, r5, pc}
 118              	.L4:
 119              		.align	2
 120              	.L3:
 121 006c 00000000 		.word	Computer
 122 0070 00000000 		.word	computer
 123 0074 00000000 		.word	Estimator
 124 0078 00000000 		.word	estimator
 125 007c 00000000 		.word	Motor
 126 0080 00000000 		.word	motor
 127              		.cfi_endproc
 128              	.LFE175:
 130              		.section	.bss.motor,"aw",%nobits
 131              		.align	2
 134              	motor:
 135 0000 00000000 		.space	228
 135      00000000 
 135      00000000 
 135      00000000 
 135      00000000 
 136              		.section	.bss.estimator,"aw",%nobits
 137              		.align	2
 140              	estimator:
ARM GAS  C:\Users\Lamp\AppData\Local\Temp\cc55vlg1.s 			page 4


 141 0000 00000000 		.space	232
 141      00000000 
 141      00000000 
 141      00000000 
 141      00000000 
 142              		.section	.bss.computer,"aw",%nobits
 143              		.align	2
 146              	computer:
 147 0000 00000000 		.space	232
 147      00000000 
 147      00000000 
 147      00000000 
 147      00000000 
 148              		.text
 149              	.Letext0:
 150              		.file 2 "C:/ARM GNU Toolchain/arm-none-eabi/include/machine/_default_types.h"
 151              		.file 3 "C:/ARM GNU Toolchain/arm-none-eabi/include/sys/_stdint.h"
 152              		.file 4 "Drivers/STM32F4xx_HAL_Driver/Inc/stm32f4xx_hal_def.h"
 153              		.file 5 "Drivers/CMSIS/DSP/Include/arm_math.h"
 154              		.file 6 "ThirdParty/FreeRTOS/portable/GCC/ARM_CM4F/portmacro.h"
 155              		.file 7 "ThirdParty/FreeRTOS/include/FreeRTOS.h"
 156              		.file 8 "ThirdParty/FreeRTOS/include/task.h"
 157              		.file 9 "ThirdParty/FreeRTOS/include/queue.h"
 158              		.file 10 "Core/Src/Middleware/Topic.h"
 159              		.file 11 "Core/Src/Middleware/Active_Object.h"
 160              		.file 12 "Core/Src/Middleware/dsp.h"
 161              		.file 13 "Core/Src/Application/Inc/Estimator.h"
 162              		.file 14 "Core/Src/Application/Inc/Computer.h"
 163              		.file 15 "Core/Src/Application/Inc/Motor.h"
 164              		.file 16 "Core/Src/Drivers/Inc/timer.h"
 165              		.file 17 "Core/Src/Drivers/Inc/usart.h"
 166              		.file 18 "Core/Src/Drivers/Inc/SysConfig.h"
 167              		.file 19 "Drivers/STM32F4xx_HAL_Driver/Inc/stm32f4xx_hal.h"
ARM GAS  C:\Users\Lamp\AppData\Local\Temp\cc55vlg1.s 			page 5


DEFINED SYMBOLS
                            *ABS*:00000000 main.c
C:\Users\Lamp\AppData\Local\Temp\cc55vlg1.s:21     .text.main:00000000 $t
C:\Users\Lamp\AppData\Local\Temp\cc55vlg1.s:27     .text.main:00000000 main
C:\Users\Lamp\AppData\Local\Temp\cc55vlg1.s:121    .text.main:0000006c $d
C:\Users\Lamp\AppData\Local\Temp\cc55vlg1.s:146    .bss.computer:00000000 computer
C:\Users\Lamp\AppData\Local\Temp\cc55vlg1.s:140    .bss.estimator:00000000 estimator
C:\Users\Lamp\AppData\Local\Temp\cc55vlg1.s:134    .bss.motor:00000000 motor
C:\Users\Lamp\AppData\Local\Temp\cc55vlg1.s:131    .bss.motor:00000000 $d
C:\Users\Lamp\AppData\Local\Temp\cc55vlg1.s:137    .bss.estimator:00000000 $d
C:\Users\Lamp\AppData\Local\Temp\cc55vlg1.s:143    .bss.computer:00000000 $d

UNDEFINED SYMBOLS
HAL_Init
SystemClock_Config
MX_GPIO_Init
Driver_USART_Init
Driver_Encoder_Init
vTaskStartScheduler
Computer
Estimator
Motor
