ARM GAS  C:\Users\Lamp\AppData\Local\Temp\ccRhHewj.s 			page 1


   1              		.cpu cortex-m4
   2              		.arch armv7e-m
   3              		.fpu fpv4-sp-d16
   4              		.eabi_attribute 27, 1
   5              		.eabi_attribute 28, 1
   6              		.eabi_attribute 20, 1
   7              		.eabi_attribute 21, 1
   8              		.eabi_attribute 23, 3
   9              		.eabi_attribute 24, 1
  10              		.eabi_attribute 25, 1
  11              		.eabi_attribute 26, 1
  12              		.eabi_attribute 30, 1
  13              		.eabi_attribute 34, 1
  14              		.eabi_attribute 18, 4
  15              		.file	"timer.c"
  16              		.text
  17              	.Ltext0:
  18              		.cfi_sections	.debug_frame
  19              		.file 1 "Core/Src/Drivers/Src/timer.c"
  20              		.section	.text.MX_TIM2_Init,"ax",%progbits
  21              		.align	1
  22              		.syntax unified
  23              		.thumb
  24              		.thumb_func
  26              	MX_TIM2_Init:
  27              	.LFB180:
   1:Core/Src/Drivers/Src/timer.c **** #include "timer.h"
   2:Core/Src/Drivers/Src/timer.c **** 
   3:Core/Src/Drivers/Src/timer.c **** TIM_HandleTypeDef htim2;
   4:Core/Src/Drivers/Src/timer.c **** TIM_HandleTypeDef htim3;
   5:Core/Src/Drivers/Src/timer.c **** TIM_HandleTypeDef htim7;
   6:Core/Src/Drivers/Src/timer.c **** 
   7:Core/Src/Drivers/Src/timer.c **** extern struct Active * AO_Estimator;
   8:Core/Src/Drivers/Src/timer.c **** extern struct Estimator * estimator;
   9:Core/Src/Drivers/Src/timer.c **** 
  10:Core/Src/Drivers/Src/timer.c **** static void MX_TIM2_Init(void);
  11:Core/Src/Drivers/Src/timer.c **** static void MX_TIM3_Init(void);
  12:Core/Src/Drivers/Src/timer.c **** static void MX_TIM7_Init(void);
  13:Core/Src/Drivers/Src/timer.c **** 
  14:Core/Src/Drivers/Src/timer.c **** Encoder encoder_topic;
  15:Core/Src/Drivers/Src/timer.c **** 
  16:Core/Src/Drivers/Src/timer.c **** /**
  17:Core/Src/Drivers/Src/timer.c ****   * @brief  Input Capture callback in non-blocking mode
  18:Core/Src/Drivers/Src/timer.c ****   * @param  htim TIM IC handle
  19:Core/Src/Drivers/Src/timer.c ****   * @retval None
  20:Core/Src/Drivers/Src/timer.c ****   */
  21:Core/Src/Drivers/Src/timer.c **** void HAL_TIM_IC_CaptureCallback (TIM_HandleTypeDef *htim) {
  22:Core/Src/Drivers/Src/timer.c ****   BaseType_t xHigherPriorityTaskWoken = pdFALSE;
  23:Core/Src/Drivers/Src/timer.c ****   if (htim->Instance == TIM2) {
  24:Core/Src/Drivers/Src/timer.c ****     /* Read motor encoder counter value */
  25:Core/Src/Drivers/Src/timer.c ****     encoder_topic.MotorCnt = (int32_t)((uint32_t)__HAL_TIM_GET_COUNTER(htim));
  26:Core/Src/Drivers/Src/timer.c ****     estimator->publicFromISR(estimator->encoder_sub, &encoder_topic, &xHigherPriorityTaskWoken);
  27:Core/Src/Drivers/Src/timer.c ****   }
  28:Core/Src/Drivers/Src/timer.c ****   else if (htim->Instance == TIM3) {
  29:Core/Src/Drivers/Src/timer.c ****     /* Read pendullum encoder counter value */
  30:Core/Src/Drivers/Src/timer.c ****     encoder_topic.PendulumCnt = (int16_t)((uint32_t) __HAL_TIM_GET_COUNTER(htim));
  31:Core/Src/Drivers/Src/timer.c ****     if (encoder_topic.PendulumCnt >= 4000 || encoder_topic.PendulumCnt <= -4000 ) {
ARM GAS  C:\Users\Lamp\AppData\Local\Temp\ccRhHewj.s 			page 2


  32:Core/Src/Drivers/Src/timer.c ****       __HAL_TIM_SET_COUNTER(&htim3, 0);
  33:Core/Src/Drivers/Src/timer.c ****     }
  34:Core/Src/Drivers/Src/timer.c ****     estimator->publicFromISR(estimator->encoder_sub, &encoder_topic, &xHigherPriorityTaskWoken);
  35:Core/Src/Drivers/Src/timer.c ****   }
  36:Core/Src/Drivers/Src/timer.c ****   portEND_SWITCHING_ISR(xHigherPriorityTaskWoken);
  37:Core/Src/Drivers/Src/timer.c **** }
  38:Core/Src/Drivers/Src/timer.c **** 
  39:Core/Src/Drivers/Src/timer.c **** /**
  40:Core/Src/Drivers/Src/timer.c ****   * @brief  Period elapsed callback in non-blocking mode
  41:Core/Src/Drivers/Src/timer.c ****   * @param  htim TIM handle
  42:Core/Src/Drivers/Src/timer.c ****   * @retval None
  43:Core/Src/Drivers/Src/timer.c ****   */
  44:Core/Src/Drivers/Src/timer.c **** void HAL_TIM_PeriodElapsedCallback(TIM_HandleTypeDef *htim) {
  45:Core/Src/Drivers/Src/timer.c **** 
  46:Core/Src/Drivers/Src/timer.c ****   BaseType_t xHigherPriorityTaskWoken = pdFALSE;
  47:Core/Src/Drivers/Src/timer.c ****   
  48:Core/Src/Drivers/Src/timer.c ****   if(htim->Instance == TIM7) {
  49:Core/Src/Drivers/Src/timer.c ****     static const Event time_evt = {TIMEOUT_1kHz_SIG};
  50:Core/Src/Drivers/Src/timer.c ****     AO_Estimator->postFromISR(AO_Estimator, &time_evt, &xHigherPriorityTaskWoken);
  51:Core/Src/Drivers/Src/timer.c ****   }
  52:Core/Src/Drivers/Src/timer.c **** 
  53:Core/Src/Drivers/Src/timer.c ****   portEND_SWITCHING_ISR(xHigherPriorityTaskWoken);
  54:Core/Src/Drivers/Src/timer.c **** }
  55:Core/Src/Drivers/Src/timer.c **** 
  56:Core/Src/Drivers/Src/timer.c **** void HAL_GPIO_EXTI_Callback(uint16_t GPIO_Pin) {
  57:Core/Src/Drivers/Src/timer.c ****   if (GPIO_Pin == GPIO_PIN_1) {
  58:Core/Src/Drivers/Src/timer.c ****     if (encoder_topic.PendulumCnt > 0 && encoder_topic.PendulumCnt < 1000) __HAL_TIM_SET_COUNTER(&h
  59:Core/Src/Drivers/Src/timer.c ****     else if (encoder_topic.PendulumCnt < -3000) __HAL_TIM_SET_COUNTER(&htim3, -3672);
  60:Core/Src/Drivers/Src/timer.c **** 
  61:Core/Src/Drivers/Src/timer.c ****     HAL_GPIO_TogglePin(GPIOD, GPIO_PIN_12);
  62:Core/Src/Drivers/Src/timer.c ****   }
  63:Core/Src/Drivers/Src/timer.c **** }
  64:Core/Src/Drivers/Src/timer.c **** 
  65:Core/Src/Drivers/Src/timer.c **** void EXTI1_IRQHandler(void) {
  66:Core/Src/Drivers/Src/timer.c ****   HAL_GPIO_EXTI_IRQHandler(GPIO_PIN_1); // Xử lý ngắt
  67:Core/Src/Drivers/Src/timer.c **** }
  68:Core/Src/Drivers/Src/timer.c **** 
  69:Core/Src/Drivers/Src/timer.c **** /**
  70:Core/Src/Drivers/Src/timer.c ****   * @brief This function initialize USART1.
  71:Core/Src/Drivers/Src/timer.c ****   */
  72:Core/Src/Drivers/Src/timer.c **** void Driver_Encoder_Init()
  73:Core/Src/Drivers/Src/timer.c **** {
  74:Core/Src/Drivers/Src/timer.c ****   MX_TIM2_Init(); // Motor encoder
  75:Core/Src/Drivers/Src/timer.c ****   MX_TIM3_Init(); // Pendullum encoder
  76:Core/Src/Drivers/Src/timer.c ****   MX_TIM7_Init(); // 1kHz timer
  77:Core/Src/Drivers/Src/timer.c ****   
  78:Core/Src/Drivers/Src/timer.c **** 
  79:Core/Src/Drivers/Src/timer.c ****   encoder_topic = (Encoder) {.MotorCnt = 0, .PendulumCnt = 0};
  80:Core/Src/Drivers/Src/timer.c ****   // HAL_TIM_Encoder_Start_IT(&htim2, TIM_CHANNEL_ALL);
  81:Core/Src/Drivers/Src/timer.c ****   // HAL_TIM_Encoder_Start_IT(&htim3, TIM_CHANNEL_ALL);
  82:Core/Src/Drivers/Src/timer.c **** }
  83:Core/Src/Drivers/Src/timer.c **** 
  84:Core/Src/Drivers/Src/timer.c **** /**
  85:Core/Src/Drivers/Src/timer.c ****   * @brief TIM2 Initialization Function
  86:Core/Src/Drivers/Src/timer.c ****   * @param None
  87:Core/Src/Drivers/Src/timer.c ****   * @retval None
  88:Core/Src/Drivers/Src/timer.c ****   */
ARM GAS  C:\Users\Lamp\AppData\Local\Temp\ccRhHewj.s 			page 3


  89:Core/Src/Drivers/Src/timer.c **** static void MX_TIM2_Init(void) {
  28              		.loc 1 89 32 view -0
  29              		.cfi_startproc
  30              		@ args = 0, pretend = 0, frame = 48
  31              		@ frame_needed = 0, uses_anonymous_args = 0
  32 0000 30B5     		push	{r4, r5, lr}
  33              	.LCFI0:
  34              		.cfi_def_cfa_offset 12
  35              		.cfi_offset 4, -12
  36              		.cfi_offset 5, -8
  37              		.cfi_offset 14, -4
  38 0002 8DB0     		sub	sp, sp, #52
  39              	.LCFI1:
  40              		.cfi_def_cfa_offset 64
  90:Core/Src/Drivers/Src/timer.c ****   TIM_Encoder_InitTypeDef sConfig = {0};
  41              		.loc 1 90 3 view .LVU1
  42              		.loc 1 90 27 is_stmt 0 view .LVU2
  43 0004 2422     		movs	r2, #36
  44 0006 0021     		movs	r1, #0
  45 0008 03A8     		add	r0, sp, #12
  46 000a FFF7FEFF 		bl	memset
  47              	.LVL0:
  91:Core/Src/Drivers/Src/timer.c ****   TIM_MasterConfigTypeDef sMasterConfig = {0};
  48              		.loc 1 91 3 is_stmt 1 view .LVU3
  49              		.loc 1 91 27 is_stmt 0 view .LVU4
  50 000e 0025     		movs	r5, #0
  51 0010 0195     		str	r5, [sp, #4]
  52 0012 0295     		str	r5, [sp, #8]
  92:Core/Src/Drivers/Src/timer.c **** 
  93:Core/Src/Drivers/Src/timer.c ****   /* USER CODE BEGIN TIM2_Init 1 */
  94:Core/Src/Drivers/Src/timer.c **** 
  95:Core/Src/Drivers/Src/timer.c ****   /* USER CODE END TIM2_Init 1 */
  96:Core/Src/Drivers/Src/timer.c ****   htim2.Instance = TIM2;
  53              		.loc 1 96 3 is_stmt 1 view .LVU5
  54              		.loc 1 96 18 is_stmt 0 view .LVU6
  55 0014 0E4C     		ldr	r4, .L3
  56 0016 4FF08043 		mov	r3, #1073741824
  57 001a 2360     		str	r3, [r4]
  97:Core/Src/Drivers/Src/timer.c ****   htim2.Init.Prescaler = 0;
  58              		.loc 1 97 3 is_stmt 1 view .LVU7
  59              		.loc 1 97 24 is_stmt 0 view .LVU8
  60 001c 6560     		str	r5, [r4, #4]
  98:Core/Src/Drivers/Src/timer.c ****   htim2.Init.CounterMode = TIM_COUNTERMODE_UP;
  61              		.loc 1 98 3 is_stmt 1 view .LVU9
  62              		.loc 1 98 26 is_stmt 0 view .LVU10
  63 001e A560     		str	r5, [r4, #8]
  99:Core/Src/Drivers/Src/timer.c ****   htim2.Init.Period = 4294967295; /* 0 -> (2^32) - 1*/
  64              		.loc 1 99 3 is_stmt 1 view .LVU11
  65              		.loc 1 99 21 is_stmt 0 view .LVU12
  66 0020 4FF0FF33 		mov	r3, #-1
  67 0024 E360     		str	r3, [r4, #12]
 100:Core/Src/Drivers/Src/timer.c ****   htim2.Init.ClockDivision = TIM_CLOCKDIVISION_DIV1;
  68              		.loc 1 100 3 is_stmt 1 view .LVU13
  69              		.loc 1 100 28 is_stmt 0 view .LVU14
  70 0026 2561     		str	r5, [r4, #16]
 101:Core/Src/Drivers/Src/timer.c ****   htim2.Init.AutoReloadPreload = TIM_AUTORELOAD_PRELOAD_ENABLE;
  71              		.loc 1 101 3 is_stmt 1 view .LVU15
ARM GAS  C:\Users\Lamp\AppData\Local\Temp\ccRhHewj.s 			page 4


  72              		.loc 1 101 32 is_stmt 0 view .LVU16
  73 0028 8023     		movs	r3, #128
  74 002a A361     		str	r3, [r4, #24]
 102:Core/Src/Drivers/Src/timer.c ****   sConfig.EncoderMode = TIM_ENCODERMODE_TI12;
  75              		.loc 1 102 3 is_stmt 1 view .LVU17
  76              		.loc 1 102 23 is_stmt 0 view .LVU18
  77 002c 0323     		movs	r3, #3
  78 002e 0393     		str	r3, [sp, #12]
 103:Core/Src/Drivers/Src/timer.c ****   sConfig.IC1Polarity = TIM_ICPOLARITY_RISING;
  79              		.loc 1 103 3 is_stmt 1 view .LVU19
 104:Core/Src/Drivers/Src/timer.c ****   sConfig.IC1Selection = TIM_ICSELECTION_DIRECTTI;
  80              		.loc 1 104 3 view .LVU20
  81              		.loc 1 104 24 is_stmt 0 view .LVU21
  82 0030 0123     		movs	r3, #1
  83 0032 0593     		str	r3, [sp, #20]
 105:Core/Src/Drivers/Src/timer.c ****   sConfig.IC1Prescaler = TIM_ICPSC_DIV1;
  84              		.loc 1 105 3 is_stmt 1 view .LVU22
 106:Core/Src/Drivers/Src/timer.c ****   sConfig.IC1Filter = 0;
  85              		.loc 1 106 3 view .LVU23
 107:Core/Src/Drivers/Src/timer.c ****   sConfig.IC2Polarity = TIM_ICPOLARITY_RISING;
  86              		.loc 1 107 3 view .LVU24
 108:Core/Src/Drivers/Src/timer.c ****   sConfig.IC2Selection = TIM_ICSELECTION_DIRECTTI;
  87              		.loc 1 108 3 view .LVU25
  88              		.loc 1 108 24 is_stmt 0 view .LVU26
  89 0034 0993     		str	r3, [sp, #36]
 109:Core/Src/Drivers/Src/timer.c ****   sConfig.IC2Prescaler = TIM_ICPSC_DIV1;
  90              		.loc 1 109 3 is_stmt 1 view .LVU27
 110:Core/Src/Drivers/Src/timer.c ****   sConfig.IC2Filter = 0;
  91              		.loc 1 110 3 view .LVU28
 111:Core/Src/Drivers/Src/timer.c ****   HAL_TIM_Encoder_Init(&htim2, &sConfig);
  92              		.loc 1 111 3 view .LVU29
  93 0036 03A9     		add	r1, sp, #12
  94 0038 2046     		mov	r0, r4
  95 003a FFF7FEFF 		bl	HAL_TIM_Encoder_Init
  96              	.LVL1:
 112:Core/Src/Drivers/Src/timer.c ****   sMasterConfig.MasterOutputTrigger = TIM_TRGO_RESET;
  97              		.loc 1 112 3 view .LVU30
  98              		.loc 1 112 37 is_stmt 0 view .LVU31
  99 003e 0195     		str	r5, [sp, #4]
 113:Core/Src/Drivers/Src/timer.c ****   sMasterConfig.MasterSlaveMode = TIM_MASTERSLAVEMODE_DISABLE;
 100              		.loc 1 113 3 is_stmt 1 view .LVU32
 101              		.loc 1 113 33 is_stmt 0 view .LVU33
 102 0040 0295     		str	r5, [sp, #8]
 114:Core/Src/Drivers/Src/timer.c ****   HAL_TIMEx_MasterConfigSynchronization(&htim2, &sMasterConfig);
 103              		.loc 1 114 3 is_stmt 1 view .LVU34
 104 0042 01A9     		add	r1, sp, #4
 105 0044 2046     		mov	r0, r4
 106 0046 FFF7FEFF 		bl	HAL_TIMEx_MasterConfigSynchronization
 107              	.LVL2:
 115:Core/Src/Drivers/Src/timer.c **** }
 108              		.loc 1 115 1 is_stmt 0 view .LVU35
 109 004a 0DB0     		add	sp, sp, #52
 110              	.LCFI2:
 111              		.cfi_def_cfa_offset 12
 112              		@ sp needed
 113 004c 30BD     		pop	{r4, r5, pc}
 114              	.L4:
ARM GAS  C:\Users\Lamp\AppData\Local\Temp\ccRhHewj.s 			page 5


 115 004e 00BF     		.align	2
 116              	.L3:
 117 0050 00000000 		.word	htim2
 118              		.cfi_endproc
 119              	.LFE180:
 121              		.section	.text.MX_TIM3_Init,"ax",%progbits
 122              		.align	1
 123              		.syntax unified
 124              		.thumb
 125              		.thumb_func
 127              	MX_TIM3_Init:
 128              	.LFB181:
 116:Core/Src/Drivers/Src/timer.c **** 
 117:Core/Src/Drivers/Src/timer.c **** /**
 118:Core/Src/Drivers/Src/timer.c ****   * @brief TIM3 Initialization Function
 119:Core/Src/Drivers/Src/timer.c ****   * @param None
 120:Core/Src/Drivers/Src/timer.c ****   * @retval None
 121:Core/Src/Drivers/Src/timer.c ****   */
 122:Core/Src/Drivers/Src/timer.c **** static void MX_TIM3_Init(void) {
 129              		.loc 1 122 32 is_stmt 1 view -0
 130              		.cfi_startproc
 131              		@ args = 0, pretend = 0, frame = 48
 132              		@ frame_needed = 0, uses_anonymous_args = 0
 133 0000 30B5     		push	{r4, r5, lr}
 134              	.LCFI3:
 135              		.cfi_def_cfa_offset 12
 136              		.cfi_offset 4, -12
 137              		.cfi_offset 5, -8
 138              		.cfi_offset 14, -4
 139 0002 8DB0     		sub	sp, sp, #52
 140              	.LCFI4:
 141              		.cfi_def_cfa_offset 64
 123:Core/Src/Drivers/Src/timer.c ****   TIM_Encoder_InitTypeDef sConfig = {0};
 142              		.loc 1 123 3 view .LVU37
 143              		.loc 1 123 27 is_stmt 0 view .LVU38
 144 0004 2422     		movs	r2, #36
 145 0006 0021     		movs	r1, #0
 146 0008 03A8     		add	r0, sp, #12
 147 000a FFF7FEFF 		bl	memset
 148              	.LVL3:
 124:Core/Src/Drivers/Src/timer.c ****   TIM_MasterConfigTypeDef sMasterConfig = {0};
 149              		.loc 1 124 3 is_stmt 1 view .LVU39
 150              		.loc 1 124 27 is_stmt 0 view .LVU40
 151 000e 0025     		movs	r5, #0
 152 0010 0195     		str	r5, [sp, #4]
 153 0012 0295     		str	r5, [sp, #8]
 125:Core/Src/Drivers/Src/timer.c **** 
 126:Core/Src/Drivers/Src/timer.c ****   /* USER CODE BEGIN TIM3_Init 1 */
 127:Core/Src/Drivers/Src/timer.c **** 
 128:Core/Src/Drivers/Src/timer.c ****   /* USER CODE END TIM3_Init 1 */
 129:Core/Src/Drivers/Src/timer.c ****   htim3.Instance = TIM3;
 154              		.loc 1 129 3 is_stmt 1 view .LVU41
 155              		.loc 1 129 18 is_stmt 0 view .LVU42
 156 0014 0D4C     		ldr	r4, .L7
 157 0016 0E4B     		ldr	r3, .L7+4
 158 0018 2360     		str	r3, [r4]
 130:Core/Src/Drivers/Src/timer.c ****   htim3.Init.Prescaler = 0;
ARM GAS  C:\Users\Lamp\AppData\Local\Temp\ccRhHewj.s 			page 6


 159              		.loc 1 130 3 is_stmt 1 view .LVU43
 160              		.loc 1 130 24 is_stmt 0 view .LVU44
 161 001a 6560     		str	r5, [r4, #4]
 131:Core/Src/Drivers/Src/timer.c ****   htim3.Init.CounterMode = TIM_COUNTERMODE_UP;
 162              		.loc 1 131 3 is_stmt 1 view .LVU45
 163              		.loc 1 131 26 is_stmt 0 view .LVU46
 164 001c A560     		str	r5, [r4, #8]
 132:Core/Src/Drivers/Src/timer.c ****   htim3.Init.Period = 65535; /* 0 -> (2^16) - 1*/
 165              		.loc 1 132 3 is_stmt 1 view .LVU47
 166              		.loc 1 132 21 is_stmt 0 view .LVU48
 167 001e 4FF6FF73 		movw	r3, #65535
 168 0022 E360     		str	r3, [r4, #12]
 133:Core/Src/Drivers/Src/timer.c ****   htim3.Init.ClockDivision = TIM_CLOCKDIVISION_DIV1;
 169              		.loc 1 133 3 is_stmt 1 view .LVU49
 170              		.loc 1 133 28 is_stmt 0 view .LVU50
 171 0024 2561     		str	r5, [r4, #16]
 134:Core/Src/Drivers/Src/timer.c ****   htim3.Init.AutoReloadPreload = TIM_AUTORELOAD_PRELOAD_ENABLE;
 172              		.loc 1 134 3 is_stmt 1 view .LVU51
 173              		.loc 1 134 32 is_stmt 0 view .LVU52
 174 0026 8023     		movs	r3, #128
 175 0028 A361     		str	r3, [r4, #24]
 135:Core/Src/Drivers/Src/timer.c ****   sConfig.EncoderMode = TIM_ENCODERMODE_TI12;
 176              		.loc 1 135 3 is_stmt 1 view .LVU53
 177              		.loc 1 135 23 is_stmt 0 view .LVU54
 178 002a 0323     		movs	r3, #3
 179 002c 0393     		str	r3, [sp, #12]
 136:Core/Src/Drivers/Src/timer.c ****   sConfig.IC1Polarity = TIM_ICPOLARITY_RISING;
 180              		.loc 1 136 3 is_stmt 1 view .LVU55
 137:Core/Src/Drivers/Src/timer.c ****   sConfig.IC1Selection = TIM_ICSELECTION_DIRECTTI;
 181              		.loc 1 137 3 view .LVU56
 182              		.loc 1 137 24 is_stmt 0 view .LVU57
 183 002e 0123     		movs	r3, #1
 184 0030 0593     		str	r3, [sp, #20]
 138:Core/Src/Drivers/Src/timer.c ****   sConfig.IC1Prescaler = TIM_ICPSC_DIV1;
 185              		.loc 1 138 3 is_stmt 1 view .LVU58
 139:Core/Src/Drivers/Src/timer.c ****   sConfig.IC1Filter = 0;
 186              		.loc 1 139 3 view .LVU59
 140:Core/Src/Drivers/Src/timer.c ****   sConfig.IC2Polarity = TIM_ICPOLARITY_RISING;
 187              		.loc 1 140 3 view .LVU60
 141:Core/Src/Drivers/Src/timer.c ****   sConfig.IC2Selection = TIM_ICSELECTION_DIRECTTI;
 188              		.loc 1 141 3 view .LVU61
 189              		.loc 1 141 24 is_stmt 0 view .LVU62
 190 0032 0993     		str	r3, [sp, #36]
 142:Core/Src/Drivers/Src/timer.c ****   sConfig.IC2Prescaler = TIM_ICPSC_DIV1;
 191              		.loc 1 142 3 is_stmt 1 view .LVU63
 143:Core/Src/Drivers/Src/timer.c ****   sConfig.IC2Filter = 0;
 192              		.loc 1 143 3 view .LVU64
 144:Core/Src/Drivers/Src/timer.c ****   HAL_TIM_Encoder_Init(&htim3, &sConfig);
 193              		.loc 1 144 3 view .LVU65
 194 0034 03A9     		add	r1, sp, #12
 195 0036 2046     		mov	r0, r4
 196 0038 FFF7FEFF 		bl	HAL_TIM_Encoder_Init
 197              	.LVL4:
 145:Core/Src/Drivers/Src/timer.c ****   sMasterConfig.MasterOutputTrigger = TIM_TRGO_RESET;
 198              		.loc 1 145 3 view .LVU66
 199              		.loc 1 145 37 is_stmt 0 view .LVU67
 200 003c 0195     		str	r5, [sp, #4]
ARM GAS  C:\Users\Lamp\AppData\Local\Temp\ccRhHewj.s 			page 7


 146:Core/Src/Drivers/Src/timer.c ****   sMasterConfig.MasterSlaveMode = TIM_MASTERSLAVEMODE_DISABLE;
 201              		.loc 1 146 3 is_stmt 1 view .LVU68
 202              		.loc 1 146 33 is_stmt 0 view .LVU69
 203 003e 0295     		str	r5, [sp, #8]
 147:Core/Src/Drivers/Src/timer.c ****   HAL_TIMEx_MasterConfigSynchronization(&htim3, &sMasterConfig);
 204              		.loc 1 147 3 is_stmt 1 view .LVU70
 205 0040 01A9     		add	r1, sp, #4
 206 0042 2046     		mov	r0, r4
 207 0044 FFF7FEFF 		bl	HAL_TIMEx_MasterConfigSynchronization
 208              	.LVL5:
 148:Core/Src/Drivers/Src/timer.c **** }
 209              		.loc 1 148 1 is_stmt 0 view .LVU71
 210 0048 0DB0     		add	sp, sp, #52
 211              	.LCFI5:
 212              		.cfi_def_cfa_offset 12
 213              		@ sp needed
 214 004a 30BD     		pop	{r4, r5, pc}
 215              	.L8:
 216              		.align	2
 217              	.L7:
 218 004c 00000000 		.word	htim3
 219 0050 00040040 		.word	1073742848
 220              		.cfi_endproc
 221              	.LFE181:
 223              		.section	.text.MX_TIM7_Init,"ax",%progbits
 224              		.align	1
 225              		.syntax unified
 226              		.thumb
 227              		.thumb_func
 229              	MX_TIM7_Init:
 230              	.LFB182:
 149:Core/Src/Drivers/Src/timer.c **** 
 150:Core/Src/Drivers/Src/timer.c **** /**
 151:Core/Src/Drivers/Src/timer.c ****   * @brief TIM7 Initialization Function
 152:Core/Src/Drivers/Src/timer.c ****   * @param None
 153:Core/Src/Drivers/Src/timer.c ****   * @retval None
 154:Core/Src/Drivers/Src/timer.c ****   */
 155:Core/Src/Drivers/Src/timer.c **** static void MX_TIM7_Init(void)
 156:Core/Src/Drivers/Src/timer.c **** {
 231              		.loc 1 156 1 is_stmt 1 view -0
 232              		.cfi_startproc
 233              		@ args = 0, pretend = 0, frame = 8
 234              		@ frame_needed = 0, uses_anonymous_args = 0
 235 0000 30B5     		push	{r4, r5, lr}
 236              	.LCFI6:
 237              		.cfi_def_cfa_offset 12
 238              		.cfi_offset 4, -12
 239              		.cfi_offset 5, -8
 240              		.cfi_offset 14, -4
 241 0002 83B0     		sub	sp, sp, #12
 242              	.LCFI7:
 243              		.cfi_def_cfa_offset 24
 157:Core/Src/Drivers/Src/timer.c ****   TIM_MasterConfigTypeDef sMasterConfig = {0};
 244              		.loc 1 157 3 view .LVU73
 245              		.loc 1 157 27 is_stmt 0 view .LVU74
 246 0004 0025     		movs	r5, #0
 247 0006 0095     		str	r5, [sp]
ARM GAS  C:\Users\Lamp\AppData\Local\Temp\ccRhHewj.s 			page 8


 248 0008 0195     		str	r5, [sp, #4]
 158:Core/Src/Drivers/Src/timer.c **** 
 159:Core/Src/Drivers/Src/timer.c ****   htim7.Instance = TIM7;
 249              		.loc 1 159 3 is_stmt 1 view .LVU75
 250              		.loc 1 159 18 is_stmt 0 view .LVU76
 251 000a 0B4C     		ldr	r4, .L11
 252 000c 0B4B     		ldr	r3, .L11+4
 253 000e 2360     		str	r3, [r4]
 160:Core/Src/Drivers/Src/timer.c ****   htim7.Init.Prescaler = 84;
 254              		.loc 1 160 3 is_stmt 1 view .LVU77
 255              		.loc 1 160 24 is_stmt 0 view .LVU78
 256 0010 5423     		movs	r3, #84
 257 0012 6360     		str	r3, [r4, #4]
 161:Core/Src/Drivers/Src/timer.c ****   htim7.Init.CounterMode = TIM_COUNTERMODE_UP;
 258              		.loc 1 161 3 is_stmt 1 view .LVU79
 259              		.loc 1 161 26 is_stmt 0 view .LVU80
 260 0014 A560     		str	r5, [r4, #8]
 162:Core/Src/Drivers/Src/timer.c ****   htim7.Init.Period = 1000;
 261              		.loc 1 162 3 is_stmt 1 view .LVU81
 262              		.loc 1 162 21 is_stmt 0 view .LVU82
 263 0016 4FF47A73 		mov	r3, #1000
 264 001a E360     		str	r3, [r4, #12]
 163:Core/Src/Drivers/Src/timer.c ****   htim7.Init.AutoReloadPreload = TIM_AUTORELOAD_PRELOAD_ENABLE;
 265              		.loc 1 163 3 is_stmt 1 view .LVU83
 266              		.loc 1 163 32 is_stmt 0 view .LVU84
 267 001c 8023     		movs	r3, #128
 268 001e A361     		str	r3, [r4, #24]
 164:Core/Src/Drivers/Src/timer.c ****   if (HAL_TIM_Base_Init(&htim7) != HAL_OK)
 269              		.loc 1 164 3 is_stmt 1 view .LVU85
 270              		.loc 1 164 7 is_stmt 0 view .LVU86
 271 0020 2046     		mov	r0, r4
 272 0022 FFF7FEFF 		bl	HAL_TIM_Base_Init
 273              	.LVL6:
 165:Core/Src/Drivers/Src/timer.c ****   {
 166:Core/Src/Drivers/Src/timer.c ****     // Error_Handler();
 167:Core/Src/Drivers/Src/timer.c ****   }
 274              		.loc 1 167 3 is_stmt 1 view .LVU87
 168:Core/Src/Drivers/Src/timer.c **** 
 169:Core/Src/Drivers/Src/timer.c ****   sMasterConfig.MasterOutputTrigger = TIM_TRGO_RESET;
 275              		.loc 1 169 3 view .LVU88
 276              		.loc 1 169 37 is_stmt 0 view .LVU89
 277 0026 0095     		str	r5, [sp]
 170:Core/Src/Drivers/Src/timer.c ****   sMasterConfig.MasterSlaveMode = TIM_MASTERSLAVEMODE_DISABLE;
 278              		.loc 1 170 3 is_stmt 1 view .LVU90
 279              		.loc 1 170 33 is_stmt 0 view .LVU91
 280 0028 0195     		str	r5, [sp, #4]
 171:Core/Src/Drivers/Src/timer.c ****   if (HAL_TIMEx_MasterConfigSynchronization(&htim7, &sMasterConfig) != HAL_OK)
 281              		.loc 1 171 3 is_stmt 1 view .LVU92
 282              		.loc 1 171 7 is_stmt 0 view .LVU93
 283 002a 6946     		mov	r1, sp
 284 002c 2046     		mov	r0, r4
 285 002e FFF7FEFF 		bl	HAL_TIMEx_MasterConfigSynchronization
 286              	.LVL7:
 172:Core/Src/Drivers/Src/timer.c ****   {
 173:Core/Src/Drivers/Src/timer.c ****     // Error_Handler();
 174:Core/Src/Drivers/Src/timer.c ****   }
 287              		.loc 1 174 3 is_stmt 1 view .LVU94
ARM GAS  C:\Users\Lamp\AppData\Local\Temp\ccRhHewj.s 			page 9


 175:Core/Src/Drivers/Src/timer.c **** }
 288              		.loc 1 175 1 is_stmt 0 view .LVU95
 289 0032 03B0     		add	sp, sp, #12
 290              	.LCFI8:
 291              		.cfi_def_cfa_offset 12
 292              		@ sp needed
 293 0034 30BD     		pop	{r4, r5, pc}
 294              	.L12:
 295 0036 00BF     		.align	2
 296              	.L11:
 297 0038 00000000 		.word	htim7
 298 003c 00140040 		.word	1073746944
 299              		.cfi_endproc
 300              	.LFE182:
 302              		.section	.text.HAL_TIM_IC_CaptureCallback,"ax",%progbits
 303              		.align	1
 304              		.global	HAL_TIM_IC_CaptureCallback
 305              		.syntax unified
 306              		.thumb
 307              		.thumb_func
 309              	HAL_TIM_IC_CaptureCallback:
 310              	.LVL8:
 311              	.LFB175:
  21:Core/Src/Drivers/Src/timer.c ****   BaseType_t xHigherPriorityTaskWoken = pdFALSE;
 312              		.loc 1 21 59 is_stmt 1 view -0
 313              		.cfi_startproc
 314              		@ args = 0, pretend = 0, frame = 8
 315              		@ frame_needed = 0, uses_anonymous_args = 0
  21:Core/Src/Drivers/Src/timer.c ****   BaseType_t xHigherPriorityTaskWoken = pdFALSE;
 316              		.loc 1 21 59 is_stmt 0 view .LVU97
 317 0000 10B5     		push	{r4, lr}
 318              	.LCFI9:
 319              		.cfi_def_cfa_offset 8
 320              		.cfi_offset 4, -8
 321              		.cfi_offset 14, -4
 322 0002 82B0     		sub	sp, sp, #8
 323              	.LCFI10:
 324              		.cfi_def_cfa_offset 16
  22:Core/Src/Drivers/Src/timer.c ****   if (htim->Instance == TIM2) {
 325              		.loc 1 22 3 is_stmt 1 view .LVU98
  22:Core/Src/Drivers/Src/timer.c ****   if (htim->Instance == TIM2) {
 326              		.loc 1 22 14 is_stmt 0 view .LVU99
 327 0004 0023     		movs	r3, #0
 328 0006 0193     		str	r3, [sp, #4]
  23:Core/Src/Drivers/Src/timer.c ****     /* Read motor encoder counter value */
 329              		.loc 1 23 3 is_stmt 1 view .LVU100
  23:Core/Src/Drivers/Src/timer.c ****     /* Read motor encoder counter value */
 330              		.loc 1 23 11 is_stmt 0 view .LVU101
 331 0008 0368     		ldr	r3, [r0]
  23:Core/Src/Drivers/Src/timer.c ****     /* Read motor encoder counter value */
 332              		.loc 1 23 6 view .LVU102
 333 000a B3F1804F 		cmp	r3, #1073741824
 334 000e 10D0     		beq	.L19
  28:Core/Src/Drivers/Src/timer.c ****     /* Read pendullum encoder counter value */
 335              		.loc 1 28 8 is_stmt 1 view .LVU103
  28:Core/Src/Drivers/Src/timer.c ****     /* Read pendullum encoder counter value */
 336              		.loc 1 28 11 is_stmt 0 view .LVU104
ARM GAS  C:\Users\Lamp\AppData\Local\Temp\ccRhHewj.s 			page 10


 337 0010 1A4A     		ldr	r2, .L21
 338 0012 9342     		cmp	r3, r2
 339 0014 19D0     		beq	.L20
 340              	.LVL9:
 341              	.L15:
  36:Core/Src/Drivers/Src/timer.c **** }
 342              		.loc 1 36 3 is_stmt 1 view .LVU105
  36:Core/Src/Drivers/Src/timer.c **** }
 343              		.loc 1 36 3 view .LVU106
 344 0016 019B     		ldr	r3, [sp, #4]
 345 0018 4BB1     		cbz	r3, .L13
  36:Core/Src/Drivers/Src/timer.c **** }
 346              		.loc 1 36 3 discriminator 1 view .LVU107
 347 001a 4FF0E023 		mov	r3, #-536813568
 348 001e 4FF08052 		mov	r2, #268435456
 349 0022 C3F8042D 		str	r2, [r3, #3332]
  36:Core/Src/Drivers/Src/timer.c **** }
 350              		.loc 1 36 3 discriminator 1 view .LVU108
 351              		.syntax unified
 352              	@ 36 "Core/Src/Drivers/Src/timer.c" 1
 353 0026 BFF34F8F 		dsb
 354              	@ 0 "" 2
  36:Core/Src/Drivers/Src/timer.c **** }
 355              		.loc 1 36 3 discriminator 1 view .LVU109
 356              	@ 36 "Core/Src/Drivers/Src/timer.c" 1
 357 002a BFF36F8F 		isb
 358              	@ 0 "" 2
  36:Core/Src/Drivers/Src/timer.c **** }
 359              		.loc 1 36 3 discriminator 3 view .LVU110
  36:Core/Src/Drivers/Src/timer.c **** }
 360              		.loc 1 36 3 discriminator 3 view .LVU111
 361              		.thumb
 362              		.syntax unified
 363              	.L13:
  37:Core/Src/Drivers/Src/timer.c **** 
 364              		.loc 1 37 1 is_stmt 0 view .LVU112
 365 002e 02B0     		add	sp, sp, #8
 366              	.LCFI11:
 367              		.cfi_remember_state
 368              		.cfi_def_cfa_offset 8
 369              		@ sp needed
 370 0030 10BD     		pop	{r4, pc}
 371              	.LVL10:
 372              	.L19:
 373              	.LCFI12:
 374              		.cfi_restore_state
  25:Core/Src/Drivers/Src/timer.c ****     estimator->publicFromISR(estimator->encoder_sub, &encoder_topic, &xHigherPriorityTaskWoken);
 375              		.loc 1 25 5 is_stmt 1 view .LVU113
  25:Core/Src/Drivers/Src/timer.c ****     estimator->publicFromISR(estimator->encoder_sub, &encoder_topic, &xHigherPriorityTaskWoken);
 376              		.loc 1 25 50 is_stmt 0 view .LVU114
 377 0032 5B6A     		ldr	r3, [r3, #36]
  25:Core/Src/Drivers/Src/timer.c ****     estimator->publicFromISR(estimator->encoder_sub, &encoder_topic, &xHigherPriorityTaskWoken);
 378              		.loc 1 25 28 view .LVU115
 379 0034 1249     		ldr	r1, .L21+4
 380 0036 4B60     		str	r3, [r1, #4]
  26:Core/Src/Drivers/Src/timer.c ****   }
 381              		.loc 1 26 5 is_stmt 1 view .LVU116
ARM GAS  C:\Users\Lamp\AppData\Local\Temp\ccRhHewj.s 			page 11


  26:Core/Src/Drivers/Src/timer.c ****   }
 382              		.loc 1 26 14 is_stmt 0 view .LVU117
 383 0038 124B     		ldr	r3, .L21+8
 384 003a 1B68     		ldr	r3, [r3]
 385 003c D3F8E440 		ldr	r4, [r3, #228]
  26:Core/Src/Drivers/Src/timer.c ****   }
 386              		.loc 1 26 5 view .LVU118
 387 0040 01AA     		add	r2, sp, #4
 388 0042 D3F8D000 		ldr	r0, [r3, #208]
 389              	.LVL11:
  26:Core/Src/Drivers/Src/timer.c ****   }
 390              		.loc 1 26 5 view .LVU119
 391 0046 A047     		blx	r4
 392              	.LVL12:
 393 0048 E5E7     		b	.L15
 394              	.LVL13:
 395              	.L20:
  30:Core/Src/Drivers/Src/timer.c ****     if (encoder_topic.PendulumCnt >= 4000 || encoder_topic.PendulumCnt <= -4000 ) {
 396              		.loc 1 30 5 is_stmt 1 view .LVU120
  30:Core/Src/Drivers/Src/timer.c ****     if (encoder_topic.PendulumCnt >= 4000 || encoder_topic.PendulumCnt <= -4000 ) {
 397              		.loc 1 30 54 is_stmt 0 view .LVU121
 398 004a 5B6A     		ldr	r3, [r3, #36]
  30:Core/Src/Drivers/Src/timer.c ****     if (encoder_topic.PendulumCnt >= 4000 || encoder_topic.PendulumCnt <= -4000 ) {
 399              		.loc 1 30 31 view .LVU122
 400 004c 0C4A     		ldr	r2, .L21+4
 401 004e 1380     		strh	r3, [r2]	@ movhi
  31:Core/Src/Drivers/Src/timer.c ****       __HAL_TIM_SET_COUNTER(&htim3, 0);
 402              		.loc 1 31 5 is_stmt 1 view .LVU123
  31:Core/Src/Drivers/Src/timer.c ****       __HAL_TIM_SET_COUNTER(&htim3, 0);
 403              		.loc 1 31 43 is_stmt 0 view .LVU124
 404 0050 03F69F73 		addw	r3, r3, #3999
 405 0054 9BB2     		uxth	r3, r3
  31:Core/Src/Drivers/Src/timer.c ****       __HAL_TIM_SET_COUNTER(&htim3, 0);
 406              		.loc 1 31 8 view .LVU125
 407 0056 41F63E72 		movw	r2, #7998
 408 005a 9342     		cmp	r3, r2
 409 005c 03D9     		bls	.L16
  32:Core/Src/Drivers/Src/timer.c ****     }
 410              		.loc 1 32 7 is_stmt 1 view .LVU126
 411 005e 0A4B     		ldr	r3, .L21+12
 412 0060 1B68     		ldr	r3, [r3]
 413 0062 0022     		movs	r2, #0
 414 0064 5A62     		str	r2, [r3, #36]
 415              	.L16:
  34:Core/Src/Drivers/Src/timer.c ****   }
 416              		.loc 1 34 5 view .LVU127
  34:Core/Src/Drivers/Src/timer.c ****   }
 417              		.loc 1 34 14 is_stmt 0 view .LVU128
 418 0066 074B     		ldr	r3, .L21+8
 419 0068 1B68     		ldr	r3, [r3]
 420 006a D3F8E440 		ldr	r4, [r3, #228]
  34:Core/Src/Drivers/Src/timer.c ****   }
 421              		.loc 1 34 5 view .LVU129
 422 006e 01AA     		add	r2, sp, #4
 423 0070 0349     		ldr	r1, .L21+4
 424 0072 D3F8D000 		ldr	r0, [r3, #208]
 425              	.LVL14:
ARM GAS  C:\Users\Lamp\AppData\Local\Temp\ccRhHewj.s 			page 12


  34:Core/Src/Drivers/Src/timer.c ****   }
 426              		.loc 1 34 5 view .LVU130
 427 0076 A047     		blx	r4
 428              	.LVL15:
 429 0078 CDE7     		b	.L15
 430              	.L22:
 431 007a 00BF     		.align	2
 432              	.L21:
 433 007c 00040040 		.word	1073742848
 434 0080 00000000 		.word	encoder_topic
 435 0084 00000000 		.word	estimator
 436 0088 00000000 		.word	htim3
 437              		.cfi_endproc
 438              	.LFE175:
 440              		.section	.text.HAL_TIM_PeriodElapsedCallback,"ax",%progbits
 441              		.align	1
 442              		.global	HAL_TIM_PeriodElapsedCallback
 443              		.syntax unified
 444              		.thumb
 445              		.thumb_func
 447              	HAL_TIM_PeriodElapsedCallback:
 448              	.LVL16:
 449              	.LFB176:
  44:Core/Src/Drivers/Src/timer.c **** 
 450              		.loc 1 44 61 is_stmt 1 view -0
 451              		.cfi_startproc
 452              		@ args = 0, pretend = 0, frame = 8
 453              		@ frame_needed = 0, uses_anonymous_args = 0
  44:Core/Src/Drivers/Src/timer.c **** 
 454              		.loc 1 44 61 is_stmt 0 view .LVU132
 455 0000 00B5     		push	{lr}
 456              	.LCFI13:
 457              		.cfi_def_cfa_offset 4
 458              		.cfi_offset 14, -4
 459 0002 83B0     		sub	sp, sp, #12
 460              	.LCFI14:
 461              		.cfi_def_cfa_offset 16
  46:Core/Src/Drivers/Src/timer.c ****   
 462              		.loc 1 46 3 is_stmt 1 view .LVU133
  46:Core/Src/Drivers/Src/timer.c ****   
 463              		.loc 1 46 14 is_stmt 0 view .LVU134
 464 0004 0023     		movs	r3, #0
 465 0006 0193     		str	r3, [sp, #4]
  48:Core/Src/Drivers/Src/timer.c ****     static const Event time_evt = {TIMEOUT_1kHz_SIG};
 466              		.loc 1 48 3 is_stmt 1 view .LVU135
  48:Core/Src/Drivers/Src/timer.c ****     static const Event time_evt = {TIMEOUT_1kHz_SIG};
 467              		.loc 1 48 10 is_stmt 0 view .LVU136
 468 0008 0268     		ldr	r2, [r0]
  48:Core/Src/Drivers/Src/timer.c ****     static const Event time_evt = {TIMEOUT_1kHz_SIG};
 469              		.loc 1 48 5 view .LVU137
 470 000a 0D4B     		ldr	r3, .L28
 471 000c 9A42     		cmp	r2, r3
 472 000e 0ED0     		beq	.L27
 473              	.LVL17:
 474              	.L24:
  53:Core/Src/Drivers/Src/timer.c **** }
 475              		.loc 1 53 3 is_stmt 1 view .LVU138
ARM GAS  C:\Users\Lamp\AppData\Local\Temp\ccRhHewj.s 			page 13


  53:Core/Src/Drivers/Src/timer.c **** }
 476              		.loc 1 53 3 view .LVU139
 477 0010 019B     		ldr	r3, [sp, #4]
 478 0012 4BB1     		cbz	r3, .L23
  53:Core/Src/Drivers/Src/timer.c **** }
 479              		.loc 1 53 3 discriminator 1 view .LVU140
 480 0014 4FF0E023 		mov	r3, #-536813568
 481 0018 4FF08052 		mov	r2, #268435456
 482 001c C3F8042D 		str	r2, [r3, #3332]
  53:Core/Src/Drivers/Src/timer.c **** }
 483              		.loc 1 53 3 discriminator 1 view .LVU141
 484              		.syntax unified
 485              	@ 53 "Core/Src/Drivers/Src/timer.c" 1
 486 0020 BFF34F8F 		dsb
 487              	@ 0 "" 2
  53:Core/Src/Drivers/Src/timer.c **** }
 488              		.loc 1 53 3 discriminator 1 view .LVU142
 489              	@ 53 "Core/Src/Drivers/Src/timer.c" 1
 490 0024 BFF36F8F 		isb
 491              	@ 0 "" 2
  53:Core/Src/Drivers/Src/timer.c **** }
 492              		.loc 1 53 3 discriminator 3 view .LVU143
  53:Core/Src/Drivers/Src/timer.c **** }
 493              		.loc 1 53 3 discriminator 3 view .LVU144
 494              		.thumb
 495              		.syntax unified
 496              	.L23:
  54:Core/Src/Drivers/Src/timer.c **** 
 497              		.loc 1 54 1 is_stmt 0 view .LVU145
 498 0028 03B0     		add	sp, sp, #12
 499              	.LCFI15:
 500              		.cfi_remember_state
 501              		.cfi_def_cfa_offset 4
 502              		@ sp needed
 503 002a 5DF804FB 		ldr	pc, [sp], #4
 504              	.LVL18:
 505              	.L27:
 506              	.LCFI16:
 507              		.cfi_restore_state
 508              	.LBB2:
  49:Core/Src/Drivers/Src/timer.c ****     AO_Estimator->postFromISR(AO_Estimator, &time_evt, &xHigherPriorityTaskWoken);
 509              		.loc 1 49 5 is_stmt 1 view .LVU146
  50:Core/Src/Drivers/Src/timer.c ****   }
 510              		.loc 1 50 5 view .LVU147
  50:Core/Src/Drivers/Src/timer.c ****   }
 511              		.loc 1 50 17 is_stmt 0 view .LVU148
 512 002e 054B     		ldr	r3, .L28+4
 513 0030 1868     		ldr	r0, [r3]
 514              	.LVL19:
  50:Core/Src/Drivers/Src/timer.c ****   }
 515              		.loc 1 50 17 view .LVU149
 516 0032 D0F8C830 		ldr	r3, [r0, #200]
  50:Core/Src/Drivers/Src/timer.c ****   }
 517              		.loc 1 50 5 view .LVU150
 518 0036 01AA     		add	r2, sp, #4
 519 0038 0349     		ldr	r1, .L28+8
 520 003a 9847     		blx	r3
ARM GAS  C:\Users\Lamp\AppData\Local\Temp\ccRhHewj.s 			page 14


 521              	.LVL20:
 522 003c E8E7     		b	.L24
 523              	.L29:
 524 003e 00BF     		.align	2
 525              	.L28:
 526 0040 00140040 		.word	1073746944
 527 0044 00000000 		.word	AO_Estimator
 528 0048 00000000 		.word	time_evt.0
 529              	.LBE2:
 530              		.cfi_endproc
 531              	.LFE176:
 533              		.section	.text.HAL_GPIO_EXTI_Callback,"ax",%progbits
 534              		.align	1
 535              		.global	HAL_GPIO_EXTI_Callback
 536              		.syntax unified
 537              		.thumb
 538              		.thumb_func
 540              	HAL_GPIO_EXTI_Callback:
 541              	.LVL21:
 542              	.LFB177:
  56:Core/Src/Drivers/Src/timer.c ****   if (GPIO_Pin == GPIO_PIN_1) {
 543              		.loc 1 56 48 is_stmt 1 view -0
 544              		.cfi_startproc
 545              		@ args = 0, pretend = 0, frame = 0
 546              		@ frame_needed = 0, uses_anonymous_args = 0
  57:Core/Src/Drivers/Src/timer.c ****     if (encoder_topic.PendulumCnt > 0 && encoder_topic.PendulumCnt < 1000) __HAL_TIM_SET_COUNTER(&h
 547              		.loc 1 57 3 view .LVU152
  57:Core/Src/Drivers/Src/timer.c ****     if (encoder_topic.PendulumCnt > 0 && encoder_topic.PendulumCnt < 1000) __HAL_TIM_SET_COUNTER(&h
 548              		.loc 1 57 6 is_stmt 0 view .LVU153
 549 0000 0228     		cmp	r0, #2
 550 0002 00D0     		beq	.L38
 551 0004 7047     		bx	lr
 552              	.L38:
  56:Core/Src/Drivers/Src/timer.c ****   if (GPIO_Pin == GPIO_PIN_1) {
 553              		.loc 1 56 48 view .LVU154
 554 0006 08B5     		push	{r3, lr}
 555              	.LCFI17:
 556              		.cfi_def_cfa_offset 8
 557              		.cfi_offset 3, -8
 558              		.cfi_offset 14, -4
  58:Core/Src/Drivers/Src/timer.c ****     else if (encoder_topic.PendulumCnt < -3000) __HAL_TIM_SET_COUNTER(&htim3, -3672);
 559              		.loc 1 58 5 is_stmt 1 view .LVU155
  58:Core/Src/Drivers/Src/timer.c ****     else if (encoder_topic.PendulumCnt < -3000) __HAL_TIM_SET_COUNTER(&htim3, -3672);
 560              		.loc 1 58 22 is_stmt 0 view .LVU156
 561 0008 0D4B     		ldr	r3, .L39
 562 000a B3F90020 		ldrsh	r2, [r3]
  58:Core/Src/Drivers/Src/timer.c ****     else if (encoder_topic.PendulumCnt < -3000) __HAL_TIM_SET_COUNTER(&htim3, -3672);
 563              		.loc 1 58 39 view .LVU157
 564 000e 531E     		subs	r3, r2, #1
 565 0010 9BB2     		uxth	r3, r3
  58:Core/Src/Drivers/Src/timer.c ****     else if (encoder_topic.PendulumCnt < -3000) __HAL_TIM_SET_COUNTER(&htim3, -3672);
 566              		.loc 1 58 8 view .LVU158
 567 0012 40F2E631 		movw	r1, #998
 568 0016 8B42     		cmp	r3, r1
 569 0018 0AD8     		bhi	.L32
  58:Core/Src/Drivers/Src/timer.c ****     else if (encoder_topic.PendulumCnt < -3000) __HAL_TIM_SET_COUNTER(&htim3, -3672);
 570              		.loc 1 58 76 is_stmt 1 discriminator 1 view .LVU159
ARM GAS  C:\Users\Lamp\AppData\Local\Temp\ccRhHewj.s 			page 15


 571 001a 0A4B     		ldr	r3, .L39+4
 572 001c 1B68     		ldr	r3, [r3]
 573 001e 4FF4A472 		mov	r2, #328
 574 0022 5A62     		str	r2, [r3, #36]
 575              	.L33:
  61:Core/Src/Drivers/Src/timer.c ****   }
 576              		.loc 1 61 5 view .LVU160
 577 0024 4FF48051 		mov	r1, #4096
 578 0028 0748     		ldr	r0, .L39+8
 579              	.LVL22:
  61:Core/Src/Drivers/Src/timer.c ****   }
 580              		.loc 1 61 5 is_stmt 0 view .LVU161
 581 002a FFF7FEFF 		bl	HAL_GPIO_TogglePin
 582              	.LVL23:
  63:Core/Src/Drivers/Src/timer.c **** 
 583              		.loc 1 63 1 view .LVU162
 584 002e 08BD     		pop	{r3, pc}
 585              	.LVL24:
 586              	.L32:
  59:Core/Src/Drivers/Src/timer.c **** 
 587              		.loc 1 59 10 is_stmt 1 view .LVU163
  59:Core/Src/Drivers/Src/timer.c **** 
 588              		.loc 1 59 13 is_stmt 0 view .LVU164
 589 0030 064B     		ldr	r3, .L39+12
 590 0032 9A42     		cmp	r2, r3
 591 0034 F6DA     		bge	.L33
  59:Core/Src/Drivers/Src/timer.c **** 
 592              		.loc 1 59 49 is_stmt 1 discriminator 1 view .LVU165
 593 0036 034B     		ldr	r3, .L39+4
 594 0038 1B68     		ldr	r3, [r3]
 595 003a 054A     		ldr	r2, .L39+16
 596 003c 5A62     		str	r2, [r3, #36]
 597 003e F1E7     		b	.L33
 598              	.L40:
 599              		.align	2
 600              	.L39:
 601 0040 00000000 		.word	encoder_topic
 602 0044 00000000 		.word	htim3
 603 0048 000C0240 		.word	1073875968
 604 004c 48F4FFFF 		.word	-3000
 605 0050 A8F1FFFF 		.word	-3672
 606              		.cfi_endproc
 607              	.LFE177:
 609              		.section	.text.EXTI1_IRQHandler,"ax",%progbits
 610              		.align	1
 611              		.global	EXTI1_IRQHandler
 612              		.syntax unified
 613              		.thumb
 614              		.thumb_func
 616              	EXTI1_IRQHandler:
 617              	.LFB178:
  65:Core/Src/Drivers/Src/timer.c ****   HAL_GPIO_EXTI_IRQHandler(GPIO_PIN_1); // Xử lý ngắt
 618              		.loc 1 65 29 view -0
 619              		.cfi_startproc
 620              		@ args = 0, pretend = 0, frame = 0
 621              		@ frame_needed = 0, uses_anonymous_args = 0
 622 0000 08B5     		push	{r3, lr}
ARM GAS  C:\Users\Lamp\AppData\Local\Temp\ccRhHewj.s 			page 16


 623              	.LCFI18:
 624              		.cfi_def_cfa_offset 8
 625              		.cfi_offset 3, -8
 626              		.cfi_offset 14, -4
  66:Core/Src/Drivers/Src/timer.c **** }
 627              		.loc 1 66 3 view .LVU167
 628 0002 0220     		movs	r0, #2
 629 0004 FFF7FEFF 		bl	HAL_GPIO_EXTI_IRQHandler
 630              	.LVL25:
  67:Core/Src/Drivers/Src/timer.c **** 
 631              		.loc 1 67 1 is_stmt 0 view .LVU168
 632 0008 08BD     		pop	{r3, pc}
 633              		.cfi_endproc
 634              	.LFE178:
 636              		.section	.text.Driver_Encoder_Init,"ax",%progbits
 637              		.align	1
 638              		.global	Driver_Encoder_Init
 639              		.syntax unified
 640              		.thumb
 641              		.thumb_func
 643              	Driver_Encoder_Init:
 644              	.LFB179:
  73:Core/Src/Drivers/Src/timer.c ****   MX_TIM2_Init(); // Motor encoder
 645              		.loc 1 73 1 is_stmt 1 view -0
 646              		.cfi_startproc
 647              		@ args = 0, pretend = 0, frame = 0
 648              		@ frame_needed = 0, uses_anonymous_args = 0
 649 0000 08B5     		push	{r3, lr}
 650              	.LCFI19:
 651              		.cfi_def_cfa_offset 8
 652              		.cfi_offset 3, -8
 653              		.cfi_offset 14, -4
  74:Core/Src/Drivers/Src/timer.c ****   MX_TIM3_Init(); // Pendullum encoder
 654              		.loc 1 74 3 view .LVU170
 655 0002 FFF7FEFF 		bl	MX_TIM2_Init
 656              	.LVL26:
  75:Core/Src/Drivers/Src/timer.c ****   MX_TIM7_Init(); // 1kHz timer
 657              		.loc 1 75 3 view .LVU171
 658 0006 FFF7FEFF 		bl	MX_TIM3_Init
 659              	.LVL27:
  76:Core/Src/Drivers/Src/timer.c ****   
 660              		.loc 1 76 3 view .LVU172
 661 000a FFF7FEFF 		bl	MX_TIM7_Init
 662              	.LVL28:
  79:Core/Src/Drivers/Src/timer.c ****   // HAL_TIM_Encoder_Start_IT(&htim2, TIM_CHANNEL_ALL);
 663              		.loc 1 79 3 view .LVU173
  79:Core/Src/Drivers/Src/timer.c ****   // HAL_TIM_Encoder_Start_IT(&htim2, TIM_CHANNEL_ALL);
 664              		.loc 1 79 17 is_stmt 0 view .LVU174
 665 000e 024B     		ldr	r3, .L45
 666 0010 0022     		movs	r2, #0
 667 0012 1A80     		strh	r2, [r3]	@ movhi
 668 0014 5A60     		str	r2, [r3, #4]
  82:Core/Src/Drivers/Src/timer.c **** 
 669              		.loc 1 82 1 view .LVU175
 670 0016 08BD     		pop	{r3, pc}
 671              	.L46:
 672              		.align	2
ARM GAS  C:\Users\Lamp\AppData\Local\Temp\ccRhHewj.s 			page 17


 673              	.L45:
 674 0018 00000000 		.word	encoder_topic
 675              		.cfi_endproc
 676              	.LFE179:
 678              		.section	.text.HAL_TIM_Encoder_MspInit,"ax",%progbits
 679              		.align	1
 680              		.global	HAL_TIM_Encoder_MspInit
 681              		.syntax unified
 682              		.thumb
 683              		.thumb_func
 685              	HAL_TIM_Encoder_MspInit:
 686              	.LVL29:
 687              	.LFB183:
 176:Core/Src/Drivers/Src/timer.c **** 
 177:Core/Src/Drivers/Src/timer.c **** 
 178:Core/Src/Drivers/Src/timer.c **** /**
 179:Core/Src/Drivers/Src/timer.c **** * @brief TIM_Encoder MSP Initialization
 180:Core/Src/Drivers/Src/timer.c **** * This function configures the hardware resources used in this example
 181:Core/Src/Drivers/Src/timer.c **** * @param htim_encoder: TIM_Encoder handle pointer
 182:Core/Src/Drivers/Src/timer.c **** * @retval None
 183:Core/Src/Drivers/Src/timer.c **** */
 184:Core/Src/Drivers/Src/timer.c **** void HAL_TIM_Encoder_MspInit(TIM_HandleTypeDef* htim_encoder) {
 688              		.loc 1 184 63 is_stmt 1 view -0
 689              		.cfi_startproc
 690              		@ args = 0, pretend = 0, frame = 40
 691              		@ frame_needed = 0, uses_anonymous_args = 0
 692              		.loc 1 184 63 is_stmt 0 view .LVU177
 693 0000 10B5     		push	{r4, lr}
 694              	.LCFI20:
 695              		.cfi_def_cfa_offset 8
 696              		.cfi_offset 4, -8
 697              		.cfi_offset 14, -4
 698 0002 8AB0     		sub	sp, sp, #40
 699              	.LCFI21:
 700              		.cfi_def_cfa_offset 48
 185:Core/Src/Drivers/Src/timer.c ****   GPIO_InitTypeDef GPIO_InitStruct = {0};
 701              		.loc 1 185 3 is_stmt 1 view .LVU178
 702              		.loc 1 185 20 is_stmt 0 view .LVU179
 703 0004 0023     		movs	r3, #0
 704 0006 0593     		str	r3, [sp, #20]
 705 0008 0693     		str	r3, [sp, #24]
 706 000a 0793     		str	r3, [sp, #28]
 707 000c 0893     		str	r3, [sp, #32]
 708 000e 0993     		str	r3, [sp, #36]
 186:Core/Src/Drivers/Src/timer.c **** 
 187:Core/Src/Drivers/Src/timer.c ****   if (htim_encoder->Instance == TIM2) {
 709              		.loc 1 187 3 is_stmt 1 view .LVU180
 710              		.loc 1 187 19 is_stmt 0 view .LVU181
 711 0010 0368     		ldr	r3, [r0]
 712              		.loc 1 187 6 view .LVU182
 713 0012 B3F1804F 		cmp	r3, #1073741824
 714 0016 04D0     		beq	.L51
 188:Core/Src/Drivers/Src/timer.c ****     __HAL_RCC_TIM2_CLK_ENABLE();
 189:Core/Src/Drivers/Src/timer.c **** 
 190:Core/Src/Drivers/Src/timer.c ****     __HAL_RCC_GPIOA_CLK_ENABLE();
 191:Core/Src/Drivers/Src/timer.c ****     /**TIM2 GPIO Configuration
 192:Core/Src/Drivers/Src/timer.c ****     PA0-WKUP     ------> TIM2_CH1
ARM GAS  C:\Users\Lamp\AppData\Local\Temp\ccRhHewj.s 			page 18


 193:Core/Src/Drivers/Src/timer.c ****     PA1     ------> TIM2_CH2
 194:Core/Src/Drivers/Src/timer.c ****     */
 195:Core/Src/Drivers/Src/timer.c ****     GPIO_InitStruct.Pin = GPIO_PIN_0|GPIO_PIN_1;
 196:Core/Src/Drivers/Src/timer.c ****     GPIO_InitStruct.Mode = GPIO_MODE_AF_PP;
 197:Core/Src/Drivers/Src/timer.c ****     GPIO_InitStruct.Pull = GPIO_NOPULL;
 198:Core/Src/Drivers/Src/timer.c ****     GPIO_InitStruct.Speed = GPIO_SPEED_FREQ_LOW;
 199:Core/Src/Drivers/Src/timer.c ****     GPIO_InitStruct.Alternate = GPIO_AF1_TIM2;
 200:Core/Src/Drivers/Src/timer.c ****     HAL_GPIO_Init(GPIOA, &GPIO_InitStruct);
 201:Core/Src/Drivers/Src/timer.c **** 
 202:Core/Src/Drivers/Src/timer.c ****     /* TIM2 interrupt Init */
 203:Core/Src/Drivers/Src/timer.c ****     HAL_NVIC_SetPriority(TIM2_IRQn, 7, 0);
 204:Core/Src/Drivers/Src/timer.c ****     HAL_NVIC_EnableIRQ(TIM2_IRQn);
 205:Core/Src/Drivers/Src/timer.c ****   }
 206:Core/Src/Drivers/Src/timer.c **** 
 207:Core/Src/Drivers/Src/timer.c ****   else if (htim_encoder->Instance == TIM3) {
 715              		.loc 1 207 8 is_stmt 1 view .LVU183
 716              		.loc 1 207 11 is_stmt 0 view .LVU184
 717 0018 2C4A     		ldr	r2, .L53
 718 001a 9342     		cmp	r3, r2
 719 001c 2BD0     		beq	.L52
 720              	.LVL30:
 721              	.L47:
 208:Core/Src/Drivers/Src/timer.c ****     /* Peripheral clock enable */
 209:Core/Src/Drivers/Src/timer.c ****     __HAL_RCC_TIM3_CLK_ENABLE();
 210:Core/Src/Drivers/Src/timer.c ****     __HAL_RCC_GPIOA_CLK_ENABLE();
 211:Core/Src/Drivers/Src/timer.c **** 
 212:Core/Src/Drivers/Src/timer.c ****     /**TIM3 GPIO Configuration
 213:Core/Src/Drivers/Src/timer.c ****      * PA6     ------> TIM3_CH1
 214:Core/Src/Drivers/Src/timer.c ****      * PA7     ------> TIM3_CH2
 215:Core/Src/Drivers/Src/timer.c ****      */
 216:Core/Src/Drivers/Src/timer.c ****     GPIO_InitStruct.Pin = GPIO_PIN_6|GPIO_PIN_7;
 217:Core/Src/Drivers/Src/timer.c ****     GPIO_InitStruct.Mode = GPIO_MODE_AF_PP;
 218:Core/Src/Drivers/Src/timer.c ****     GPIO_InitStruct.Pull = GPIO_PULLUP;
 219:Core/Src/Drivers/Src/timer.c ****     GPIO_InitStruct.Speed = GPIO_SPEED_FREQ_LOW;
 220:Core/Src/Drivers/Src/timer.c ****     GPIO_InitStruct.Alternate = GPIO_AF2_TIM3;
 221:Core/Src/Drivers/Src/timer.c ****     HAL_GPIO_Init(GPIOA, &GPIO_InitStruct);
 222:Core/Src/Drivers/Src/timer.c **** 
 223:Core/Src/Drivers/Src/timer.c ****     /* TIM3 interrupt Init */
 224:Core/Src/Drivers/Src/timer.c ****     HAL_NVIC_SetPriority(TIM3_IRQn, 7, 0);
 225:Core/Src/Drivers/Src/timer.c ****     HAL_NVIC_EnableIRQ(TIM3_IRQn);
 226:Core/Src/Drivers/Src/timer.c ****   }
 227:Core/Src/Drivers/Src/timer.c **** }
 722              		.loc 1 227 1 view .LVU185
 723 001e 0AB0     		add	sp, sp, #40
 724              	.LCFI22:
 725              		.cfi_remember_state
 726              		.cfi_def_cfa_offset 8
 727              		@ sp needed
 728 0020 10BD     		pop	{r4, pc}
 729              	.LVL31:
 730              	.L51:
 731              	.LCFI23:
 732              		.cfi_restore_state
 188:Core/Src/Drivers/Src/timer.c ****     __HAL_RCC_TIM2_CLK_ENABLE();
 733              		.loc 1 188 5 is_stmt 1 view .LVU186
 734              	.LBB3:
 188:Core/Src/Drivers/Src/timer.c ****     __HAL_RCC_TIM2_CLK_ENABLE();
ARM GAS  C:\Users\Lamp\AppData\Local\Temp\ccRhHewj.s 			page 19


 735              		.loc 1 188 5 view .LVU187
 736 0022 0024     		movs	r4, #0
 737 0024 0194     		str	r4, [sp, #4]
 188:Core/Src/Drivers/Src/timer.c ****     __HAL_RCC_TIM2_CLK_ENABLE();
 738              		.loc 1 188 5 view .LVU188
 739 0026 03F50E33 		add	r3, r3, #145408
 740 002a 1A6C     		ldr	r2, [r3, #64]
 741 002c 42F00102 		orr	r2, r2, #1
 742 0030 1A64     		str	r2, [r3, #64]
 188:Core/Src/Drivers/Src/timer.c ****     __HAL_RCC_TIM2_CLK_ENABLE();
 743              		.loc 1 188 5 view .LVU189
 744 0032 1A6C     		ldr	r2, [r3, #64]
 745 0034 02F00102 		and	r2, r2, #1
 746 0038 0192     		str	r2, [sp, #4]
 188:Core/Src/Drivers/Src/timer.c ****     __HAL_RCC_TIM2_CLK_ENABLE();
 747              		.loc 1 188 5 view .LVU190
 748 003a 019A     		ldr	r2, [sp, #4]
 749              	.LBE3:
 188:Core/Src/Drivers/Src/timer.c ****     __HAL_RCC_TIM2_CLK_ENABLE();
 750              		.loc 1 188 5 view .LVU191
 190:Core/Src/Drivers/Src/timer.c ****     /**TIM2 GPIO Configuration
 751              		.loc 1 190 5 view .LVU192
 752              	.LBB4:
 190:Core/Src/Drivers/Src/timer.c ****     /**TIM2 GPIO Configuration
 753              		.loc 1 190 5 view .LVU193
 754 003c 0294     		str	r4, [sp, #8]
 190:Core/Src/Drivers/Src/timer.c ****     /**TIM2 GPIO Configuration
 755              		.loc 1 190 5 view .LVU194
 756 003e 1A6B     		ldr	r2, [r3, #48]
 757 0040 42F00102 		orr	r2, r2, #1
 758 0044 1A63     		str	r2, [r3, #48]
 190:Core/Src/Drivers/Src/timer.c ****     /**TIM2 GPIO Configuration
 759              		.loc 1 190 5 view .LVU195
 760 0046 1B6B     		ldr	r3, [r3, #48]
 761 0048 03F00103 		and	r3, r3, #1
 762 004c 0293     		str	r3, [sp, #8]
 190:Core/Src/Drivers/Src/timer.c ****     /**TIM2 GPIO Configuration
 763              		.loc 1 190 5 view .LVU196
 764 004e 029B     		ldr	r3, [sp, #8]
 765              	.LBE4:
 190:Core/Src/Drivers/Src/timer.c ****     /**TIM2 GPIO Configuration
 766              		.loc 1 190 5 view .LVU197
 195:Core/Src/Drivers/Src/timer.c ****     GPIO_InitStruct.Mode = GPIO_MODE_AF_PP;
 767              		.loc 1 195 5 view .LVU198
 195:Core/Src/Drivers/Src/timer.c ****     GPIO_InitStruct.Mode = GPIO_MODE_AF_PP;
 768              		.loc 1 195 25 is_stmt 0 view .LVU199
 769 0050 0323     		movs	r3, #3
 770 0052 0593     		str	r3, [sp, #20]
 196:Core/Src/Drivers/Src/timer.c ****     GPIO_InitStruct.Pull = GPIO_NOPULL;
 771              		.loc 1 196 5 is_stmt 1 view .LVU200
 196:Core/Src/Drivers/Src/timer.c ****     GPIO_InitStruct.Pull = GPIO_NOPULL;
 772              		.loc 1 196 26 is_stmt 0 view .LVU201
 773 0054 0223     		movs	r3, #2
 774 0056 0693     		str	r3, [sp, #24]
 197:Core/Src/Drivers/Src/timer.c ****     GPIO_InitStruct.Speed = GPIO_SPEED_FREQ_LOW;
 775              		.loc 1 197 5 is_stmt 1 view .LVU202
 198:Core/Src/Drivers/Src/timer.c ****     GPIO_InitStruct.Alternate = GPIO_AF1_TIM2;
ARM GAS  C:\Users\Lamp\AppData\Local\Temp\ccRhHewj.s 			page 20


 776              		.loc 1 198 5 view .LVU203
 199:Core/Src/Drivers/Src/timer.c ****     HAL_GPIO_Init(GPIOA, &GPIO_InitStruct);
 777              		.loc 1 199 5 view .LVU204
 199:Core/Src/Drivers/Src/timer.c ****     HAL_GPIO_Init(GPIOA, &GPIO_InitStruct);
 778              		.loc 1 199 31 is_stmt 0 view .LVU205
 779 0058 0123     		movs	r3, #1
 780 005a 0993     		str	r3, [sp, #36]
 200:Core/Src/Drivers/Src/timer.c **** 
 781              		.loc 1 200 5 is_stmt 1 view .LVU206
 782 005c 05A9     		add	r1, sp, #20
 783 005e 1C48     		ldr	r0, .L53+4
 784              	.LVL32:
 200:Core/Src/Drivers/Src/timer.c **** 
 785              		.loc 1 200 5 is_stmt 0 view .LVU207
 786 0060 FFF7FEFF 		bl	HAL_GPIO_Init
 787              	.LVL33:
 203:Core/Src/Drivers/Src/timer.c ****     HAL_NVIC_EnableIRQ(TIM2_IRQn);
 788              		.loc 1 203 5 is_stmt 1 view .LVU208
 789 0064 2246     		mov	r2, r4
 790 0066 0721     		movs	r1, #7
 791 0068 1C20     		movs	r0, #28
 792 006a FFF7FEFF 		bl	HAL_NVIC_SetPriority
 793              	.LVL34:
 204:Core/Src/Drivers/Src/timer.c ****   }
 794              		.loc 1 204 5 view .LVU209
 795 006e 1C20     		movs	r0, #28
 796 0070 FFF7FEFF 		bl	HAL_NVIC_EnableIRQ
 797              	.LVL35:
 798 0074 D3E7     		b	.L47
 799              	.LVL36:
 800              	.L52:
 209:Core/Src/Drivers/Src/timer.c ****     __HAL_RCC_GPIOA_CLK_ENABLE();
 801              		.loc 1 209 5 view .LVU210
 802              	.LBB5:
 209:Core/Src/Drivers/Src/timer.c ****     __HAL_RCC_GPIOA_CLK_ENABLE();
 803              		.loc 1 209 5 view .LVU211
 804 0076 0024     		movs	r4, #0
 805 0078 0394     		str	r4, [sp, #12]
 209:Core/Src/Drivers/Src/timer.c ****     __HAL_RCC_GPIOA_CLK_ENABLE();
 806              		.loc 1 209 5 view .LVU212
 807 007a 164B     		ldr	r3, .L53+8
 808 007c 1A6C     		ldr	r2, [r3, #64]
 809 007e 42F00202 		orr	r2, r2, #2
 810 0082 1A64     		str	r2, [r3, #64]
 209:Core/Src/Drivers/Src/timer.c ****     __HAL_RCC_GPIOA_CLK_ENABLE();
 811              		.loc 1 209 5 view .LVU213
 812 0084 1A6C     		ldr	r2, [r3, #64]
 813 0086 02F00202 		and	r2, r2, #2
 814 008a 0392     		str	r2, [sp, #12]
 209:Core/Src/Drivers/Src/timer.c ****     __HAL_RCC_GPIOA_CLK_ENABLE();
 815              		.loc 1 209 5 view .LVU214
 816 008c 039A     		ldr	r2, [sp, #12]
 817              	.LBE5:
 209:Core/Src/Drivers/Src/timer.c ****     __HAL_RCC_GPIOA_CLK_ENABLE();
 818              		.loc 1 209 5 view .LVU215
 210:Core/Src/Drivers/Src/timer.c **** 
 819              		.loc 1 210 5 view .LVU216
ARM GAS  C:\Users\Lamp\AppData\Local\Temp\ccRhHewj.s 			page 21


 820              	.LBB6:
 210:Core/Src/Drivers/Src/timer.c **** 
 821              		.loc 1 210 5 view .LVU217
 822 008e 0494     		str	r4, [sp, #16]
 210:Core/Src/Drivers/Src/timer.c **** 
 823              		.loc 1 210 5 view .LVU218
 824 0090 1A6B     		ldr	r2, [r3, #48]
 825 0092 42F00102 		orr	r2, r2, #1
 826 0096 1A63     		str	r2, [r3, #48]
 210:Core/Src/Drivers/Src/timer.c **** 
 827              		.loc 1 210 5 view .LVU219
 828 0098 1B6B     		ldr	r3, [r3, #48]
 829 009a 03F00103 		and	r3, r3, #1
 830 009e 0493     		str	r3, [sp, #16]
 210:Core/Src/Drivers/Src/timer.c **** 
 831              		.loc 1 210 5 view .LVU220
 832 00a0 049B     		ldr	r3, [sp, #16]
 833              	.LBE6:
 210:Core/Src/Drivers/Src/timer.c **** 
 834              		.loc 1 210 5 view .LVU221
 216:Core/Src/Drivers/Src/timer.c ****     GPIO_InitStruct.Mode = GPIO_MODE_AF_PP;
 835              		.loc 1 216 5 view .LVU222
 216:Core/Src/Drivers/Src/timer.c ****     GPIO_InitStruct.Mode = GPIO_MODE_AF_PP;
 836              		.loc 1 216 25 is_stmt 0 view .LVU223
 837 00a2 C023     		movs	r3, #192
 838 00a4 0593     		str	r3, [sp, #20]
 217:Core/Src/Drivers/Src/timer.c ****     GPIO_InitStruct.Pull = GPIO_PULLUP;
 839              		.loc 1 217 5 is_stmt 1 view .LVU224
 217:Core/Src/Drivers/Src/timer.c ****     GPIO_InitStruct.Pull = GPIO_PULLUP;
 840              		.loc 1 217 26 is_stmt 0 view .LVU225
 841 00a6 0223     		movs	r3, #2
 842 00a8 0693     		str	r3, [sp, #24]
 218:Core/Src/Drivers/Src/timer.c ****     GPIO_InitStruct.Speed = GPIO_SPEED_FREQ_LOW;
 843              		.loc 1 218 5 is_stmt 1 view .LVU226
 218:Core/Src/Drivers/Src/timer.c ****     GPIO_InitStruct.Speed = GPIO_SPEED_FREQ_LOW;
 844              		.loc 1 218 26 is_stmt 0 view .LVU227
 845 00aa 0122     		movs	r2, #1
 846 00ac 0792     		str	r2, [sp, #28]
 219:Core/Src/Drivers/Src/timer.c ****     GPIO_InitStruct.Alternate = GPIO_AF2_TIM3;
 847              		.loc 1 219 5 is_stmt 1 view .LVU228
 220:Core/Src/Drivers/Src/timer.c ****     HAL_GPIO_Init(GPIOA, &GPIO_InitStruct);
 848              		.loc 1 220 5 view .LVU229
 220:Core/Src/Drivers/Src/timer.c ****     HAL_GPIO_Init(GPIOA, &GPIO_InitStruct);
 849              		.loc 1 220 31 is_stmt 0 view .LVU230
 850 00ae 0993     		str	r3, [sp, #36]
 221:Core/Src/Drivers/Src/timer.c **** 
 851              		.loc 1 221 5 is_stmt 1 view .LVU231
 852 00b0 05A9     		add	r1, sp, #20
 853 00b2 0748     		ldr	r0, .L53+4
 854              	.LVL37:
 221:Core/Src/Drivers/Src/timer.c **** 
 855              		.loc 1 221 5 is_stmt 0 view .LVU232
 856 00b4 FFF7FEFF 		bl	HAL_GPIO_Init
 857              	.LVL38:
 224:Core/Src/Drivers/Src/timer.c ****     HAL_NVIC_EnableIRQ(TIM3_IRQn);
 858              		.loc 1 224 5 is_stmt 1 view .LVU233
 859 00b8 2246     		mov	r2, r4
ARM GAS  C:\Users\Lamp\AppData\Local\Temp\ccRhHewj.s 			page 22


 860 00ba 0721     		movs	r1, #7
 861 00bc 1D20     		movs	r0, #29
 862 00be FFF7FEFF 		bl	HAL_NVIC_SetPriority
 863              	.LVL39:
 225:Core/Src/Drivers/Src/timer.c ****   }
 864              		.loc 1 225 5 view .LVU234
 865 00c2 1D20     		movs	r0, #29
 866 00c4 FFF7FEFF 		bl	HAL_NVIC_EnableIRQ
 867              	.LVL40:
 868              		.loc 1 227 1 is_stmt 0 view .LVU235
 869 00c8 A9E7     		b	.L47
 870              	.L54:
 871 00ca 00BF     		.align	2
 872              	.L53:
 873 00cc 00040040 		.word	1073742848
 874 00d0 00000240 		.word	1073872896
 875 00d4 00380240 		.word	1073887232
 876              		.cfi_endproc
 877              	.LFE183:
 879              		.section	.text.HAL_TIM_Base_MspInit,"ax",%progbits
 880              		.align	1
 881              		.global	HAL_TIM_Base_MspInit
 882              		.syntax unified
 883              		.thumb
 884              		.thumb_func
 886              	HAL_TIM_Base_MspInit:
 887              	.LVL41:
 888              	.LFB184:
 228:Core/Src/Drivers/Src/timer.c **** 
 229:Core/Src/Drivers/Src/timer.c **** /**
 230:Core/Src/Drivers/Src/timer.c **** * @brief TIM_Base MSP Initialization
 231:Core/Src/Drivers/Src/timer.c **** * This function configures the hardware resources used in this example
 232:Core/Src/Drivers/Src/timer.c **** * @param htim_base: TIM_Base handle pointer
 233:Core/Src/Drivers/Src/timer.c **** * @retval None
 234:Core/Src/Drivers/Src/timer.c **** */
 235:Core/Src/Drivers/Src/timer.c **** void HAL_TIM_Base_MspInit(TIM_HandleTypeDef* htim_base)
 236:Core/Src/Drivers/Src/timer.c **** {
 889              		.loc 1 236 1 is_stmt 1 view -0
 890              		.cfi_startproc
 891              		@ args = 0, pretend = 0, frame = 8
 892              		@ frame_needed = 0, uses_anonymous_args = 0
 237:Core/Src/Drivers/Src/timer.c ****   if(htim_base->Instance==TIM7)
 893              		.loc 1 237 3 view .LVU237
 894              		.loc 1 237 15 is_stmt 0 view .LVU238
 895 0000 0268     		ldr	r2, [r0]
 896              		.loc 1 237 5 view .LVU239
 897 0002 0E4B     		ldr	r3, .L62
 898 0004 9A42     		cmp	r2, r3
 899 0006 00D0     		beq	.L61
 900 0008 7047     		bx	lr
 901              	.L61:
 236:Core/Src/Drivers/Src/timer.c ****   if(htim_base->Instance==TIM7)
 902              		.loc 1 236 1 view .LVU240
 903 000a 00B5     		push	{lr}
 904              	.LCFI24:
 905              		.cfi_def_cfa_offset 4
 906              		.cfi_offset 14, -4
ARM GAS  C:\Users\Lamp\AppData\Local\Temp\ccRhHewj.s 			page 23


 907 000c 83B0     		sub	sp, sp, #12
 908              	.LCFI25:
 909              		.cfi_def_cfa_offset 16
 238:Core/Src/Drivers/Src/timer.c ****   {
 239:Core/Src/Drivers/Src/timer.c ****     /* Peripheral clock enable */
 240:Core/Src/Drivers/Src/timer.c ****     __HAL_RCC_TIM7_CLK_ENABLE();
 910              		.loc 1 240 5 is_stmt 1 view .LVU241
 911              	.LBB7:
 912              		.loc 1 240 5 view .LVU242
 913 000e 0022     		movs	r2, #0
 914 0010 0192     		str	r2, [sp, #4]
 915              		.loc 1 240 5 view .LVU243
 916 0012 03F50933 		add	r3, r3, #140288
 917 0016 196C     		ldr	r1, [r3, #64]
 918 0018 41F02001 		orr	r1, r1, #32
 919 001c 1964     		str	r1, [r3, #64]
 920              		.loc 1 240 5 view .LVU244
 921 001e 1B6C     		ldr	r3, [r3, #64]
 922 0020 03F02003 		and	r3, r3, #32
 923 0024 0193     		str	r3, [sp, #4]
 924              		.loc 1 240 5 view .LVU245
 925 0026 019B     		ldr	r3, [sp, #4]
 926              	.LBE7:
 927              		.loc 1 240 5 view .LVU246
 241:Core/Src/Drivers/Src/timer.c **** 
 242:Core/Src/Drivers/Src/timer.c ****     /* TIM7 interrupt Init */
 243:Core/Src/Drivers/Src/timer.c ****     HAL_NVIC_SetPriority(TIM7_IRQn, 8, 0);
 928              		.loc 1 243 5 view .LVU247
 929 0028 0821     		movs	r1, #8
 930 002a 3720     		movs	r0, #55
 931              	.LVL42:
 932              		.loc 1 243 5 is_stmt 0 view .LVU248
 933 002c FFF7FEFF 		bl	HAL_NVIC_SetPriority
 934              	.LVL43:
 244:Core/Src/Drivers/Src/timer.c ****     HAL_NVIC_EnableIRQ(TIM7_IRQn);
 935              		.loc 1 244 5 is_stmt 1 view .LVU249
 936 0030 3720     		movs	r0, #55
 937 0032 FFF7FEFF 		bl	HAL_NVIC_EnableIRQ
 938              	.LVL44:
 245:Core/Src/Drivers/Src/timer.c ****   }
 246:Core/Src/Drivers/Src/timer.c **** }
 939              		.loc 1 246 1 is_stmt 0 view .LVU250
 940 0036 03B0     		add	sp, sp, #12
 941              	.LCFI26:
 942              		.cfi_def_cfa_offset 4
 943              		@ sp needed
 944 0038 5DF804FB 		ldr	pc, [sp], #4
 945              	.L63:
 946              		.align	2
 947              	.L62:
 948 003c 00140040 		.word	1073746944
 949              		.cfi_endproc
 950              	.LFE184:
 952              		.section	.text.TIM2_IRQHandler,"ax",%progbits
 953              		.align	1
 954              		.global	TIM2_IRQHandler
 955              		.syntax unified
ARM GAS  C:\Users\Lamp\AppData\Local\Temp\ccRhHewj.s 			page 24


 956              		.thumb
 957              		.thumb_func
 959              	TIM2_IRQHandler:
 960              	.LFB185:
 247:Core/Src/Drivers/Src/timer.c **** 
 248:Core/Src/Drivers/Src/timer.c **** /**
 249:Core/Src/Drivers/Src/timer.c ****   * @brief This function handles TIM2 global interrupt.
 250:Core/Src/Drivers/Src/timer.c ****   */
 251:Core/Src/Drivers/Src/timer.c **** void TIM2_IRQHandler(void)
 252:Core/Src/Drivers/Src/timer.c **** {
 961              		.loc 1 252 1 is_stmt 1 view -0
 962              		.cfi_startproc
 963              		@ args = 0, pretend = 0, frame = 0
 964              		@ frame_needed = 0, uses_anonymous_args = 0
 965 0000 08B5     		push	{r3, lr}
 966              	.LCFI27:
 967              		.cfi_def_cfa_offset 8
 968              		.cfi_offset 3, -8
 969              		.cfi_offset 14, -4
 253:Core/Src/Drivers/Src/timer.c ****   HAL_TIM_IRQHandler(&htim2);
 970              		.loc 1 253 3 view .LVU252
 971 0002 0248     		ldr	r0, .L66
 972 0004 FFF7FEFF 		bl	HAL_TIM_IRQHandler
 973              	.LVL45:
 254:Core/Src/Drivers/Src/timer.c **** }
 974              		.loc 1 254 1 is_stmt 0 view .LVU253
 975 0008 08BD     		pop	{r3, pc}
 976              	.L67:
 977 000a 00BF     		.align	2
 978              	.L66:
 979 000c 00000000 		.word	htim2
 980              		.cfi_endproc
 981              	.LFE185:
 983              		.section	.text.TIM3_IRQHandler,"ax",%progbits
 984              		.align	1
 985              		.global	TIM3_IRQHandler
 986              		.syntax unified
 987              		.thumb
 988              		.thumb_func
 990              	TIM3_IRQHandler:
 991              	.LFB186:
 255:Core/Src/Drivers/Src/timer.c **** 
 256:Core/Src/Drivers/Src/timer.c **** /**
 257:Core/Src/Drivers/Src/timer.c ****   * @brief This function handles TIM3 global interrupt.
 258:Core/Src/Drivers/Src/timer.c ****   */
 259:Core/Src/Drivers/Src/timer.c **** void TIM3_IRQHandler(void)
 260:Core/Src/Drivers/Src/timer.c **** {
 992              		.loc 1 260 1 is_stmt 1 view -0
 993              		.cfi_startproc
 994              		@ args = 0, pretend = 0, frame = 0
 995              		@ frame_needed = 0, uses_anonymous_args = 0
 996 0000 08B5     		push	{r3, lr}
 997              	.LCFI28:
 998              		.cfi_def_cfa_offset 8
 999              		.cfi_offset 3, -8
 1000              		.cfi_offset 14, -4
 261:Core/Src/Drivers/Src/timer.c ****   HAL_TIM_IRQHandler(&htim3);
ARM GAS  C:\Users\Lamp\AppData\Local\Temp\ccRhHewj.s 			page 25


 1001              		.loc 1 261 3 view .LVU255
 1002 0002 0248     		ldr	r0, .L70
 1003 0004 FFF7FEFF 		bl	HAL_TIM_IRQHandler
 1004              	.LVL46:
 262:Core/Src/Drivers/Src/timer.c **** }
 1005              		.loc 1 262 1 is_stmt 0 view .LVU256
 1006 0008 08BD     		pop	{r3, pc}
 1007              	.L71:
 1008 000a 00BF     		.align	2
 1009              	.L70:
 1010 000c 00000000 		.word	htim3
 1011              		.cfi_endproc
 1012              	.LFE186:
 1014              		.section	.text.TIM7_IRQHandler,"ax",%progbits
 1015              		.align	1
 1016              		.global	TIM7_IRQHandler
 1017              		.syntax unified
 1018              		.thumb
 1019              		.thumb_func
 1021              	TIM7_IRQHandler:
 1022              	.LFB187:
 263:Core/Src/Drivers/Src/timer.c **** 
 264:Core/Src/Drivers/Src/timer.c **** /**
 265:Core/Src/Drivers/Src/timer.c ****   * @brief This function handles TIM7 global interrupt.
 266:Core/Src/Drivers/Src/timer.c ****   */
 267:Core/Src/Drivers/Src/timer.c **** void TIM7_IRQHandler(void)
 268:Core/Src/Drivers/Src/timer.c **** {
 1023              		.loc 1 268 1 is_stmt 1 view -0
 1024              		.cfi_startproc
 1025              		@ args = 0, pretend = 0, frame = 0
 1026              		@ frame_needed = 0, uses_anonymous_args = 0
 1027 0000 08B5     		push	{r3, lr}
 1028              	.LCFI29:
 1029              		.cfi_def_cfa_offset 8
 1030              		.cfi_offset 3, -8
 1031              		.cfi_offset 14, -4
 269:Core/Src/Drivers/Src/timer.c ****   HAL_TIM_IRQHandler(&htim7);
 1032              		.loc 1 269 3 view .LVU258
 1033 0002 0248     		ldr	r0, .L74
 1034 0004 FFF7FEFF 		bl	HAL_TIM_IRQHandler
 1035              	.LVL47:
 270:Core/Src/Drivers/Src/timer.c **** }
 1036              		.loc 1 270 1 is_stmt 0 view .LVU259
 1037 0008 08BD     		pop	{r3, pc}
 1038              	.L75:
 1039 000a 00BF     		.align	2
 1040              	.L74:
 1041 000c 00000000 		.word	htim7
 1042              		.cfi_endproc
 1043              	.LFE187:
 1045              		.section	.rodata.time_evt.0,"a"
 1046              		.align	2
 1049              	time_evt.0:
 1050 0000 0300     		.short	3
 1051              		.global	encoder_topic
 1052              		.section	.bss.encoder_topic,"aw",%nobits
 1053              		.align	2
ARM GAS  C:\Users\Lamp\AppData\Local\Temp\ccRhHewj.s 			page 26


 1056              	encoder_topic:
 1057 0000 00000000 		.space	8
 1057      00000000 
 1058              		.global	htim7
 1059              		.section	.bss.htim7,"aw",%nobits
 1060              		.align	2
 1063              	htim7:
 1064 0000 00000000 		.space	72
 1064      00000000 
 1064      00000000 
 1064      00000000 
 1064      00000000 
 1065              		.global	htim3
 1066              		.section	.bss.htim3,"aw",%nobits
 1067              		.align	2
 1070              	htim3:
 1071 0000 00000000 		.space	72
 1071      00000000 
 1071      00000000 
 1071      00000000 
 1071      00000000 
 1072              		.global	htim2
 1073              		.section	.bss.htim2,"aw",%nobits
 1074              		.align	2
 1077              	htim2:
 1078 0000 00000000 		.space	72
 1078      00000000 
 1078      00000000 
 1078      00000000 
 1078      00000000 
 1079              		.text
 1080              	.Letext0:
 1081              		.file 2 "Drivers/CMSIS/Device/ST/STM32F4xx/Include/stm32f407xx.h"
 1082              		.file 3 "C:/ARM GNU Toolchain/arm-none-eabi/include/machine/_default_types.h"
 1083              		.file 4 "C:/ARM GNU Toolchain/arm-none-eabi/include/sys/_stdint.h"
 1084              		.file 5 "Drivers/STM32F4xx_HAL_Driver/Inc/stm32f4xx_hal_def.h"
 1085              		.file 6 "Drivers/STM32F4xx_HAL_Driver/Inc/stm32f4xx_hal_gpio.h"
 1086              		.file 7 "Drivers/STM32F4xx_HAL_Driver/Inc/stm32f4xx_hal_dma.h"
 1087              		.file 8 "Drivers/STM32F4xx_HAL_Driver/Inc/stm32f4xx_hal_tim.h"
 1088              		.file 9 "ThirdParty/FreeRTOS/portable/GCC/ARM_CM4F/portmacro.h"
 1089              		.file 10 "ThirdParty/FreeRTOS/include/FreeRTOS.h"
 1090              		.file 11 "ThirdParty/FreeRTOS/include/task.h"
 1091              		.file 12 "ThirdParty/FreeRTOS/include/queue.h"
 1092              		.file 13 "Drivers/CMSIS/DSP/Include/arm_math.h"
 1093              		.file 14 "Core/Src/Middleware/Topic.h"
 1094              		.file 15 "Core/Src/Middleware/Active_Object.h"
 1095              		.file 16 "Core/Src/Middleware/dsp.h"
 1096              		.file 17 "Core/Src/Application/Inc/Estimator.h"
 1097              		.file 18 "Drivers/STM32F4xx_HAL_Driver/Inc/stm32f4xx_hal_cortex.h"
 1098              		.file 19 "Drivers/STM32F4xx_HAL_Driver/Inc/stm32f4xx_hal_tim_ex.h"
 1099              		.file 20 "<built-in>"
ARM GAS  C:\Users\Lamp\AppData\Local\Temp\ccRhHewj.s 			page 27


DEFINED SYMBOLS
                            *ABS*:00000000 timer.c
C:\Users\Lamp\AppData\Local\Temp\ccRhHewj.s:21     .text.MX_TIM2_Init:00000000 $t
C:\Users\Lamp\AppData\Local\Temp\ccRhHewj.s:26     .text.MX_TIM2_Init:00000000 MX_TIM2_Init
C:\Users\Lamp\AppData\Local\Temp\ccRhHewj.s:117    .text.MX_TIM2_Init:00000050 $d
C:\Users\Lamp\AppData\Local\Temp\ccRhHewj.s:1077   .bss.htim2:00000000 htim2
C:\Users\Lamp\AppData\Local\Temp\ccRhHewj.s:122    .text.MX_TIM3_Init:00000000 $t
C:\Users\Lamp\AppData\Local\Temp\ccRhHewj.s:127    .text.MX_TIM3_Init:00000000 MX_TIM3_Init
C:\Users\Lamp\AppData\Local\Temp\ccRhHewj.s:218    .text.MX_TIM3_Init:0000004c $d
C:\Users\Lamp\AppData\Local\Temp\ccRhHewj.s:1070   .bss.htim3:00000000 htim3
C:\Users\Lamp\AppData\Local\Temp\ccRhHewj.s:224    .text.MX_TIM7_Init:00000000 $t
C:\Users\Lamp\AppData\Local\Temp\ccRhHewj.s:229    .text.MX_TIM7_Init:00000000 MX_TIM7_Init
C:\Users\Lamp\AppData\Local\Temp\ccRhHewj.s:297    .text.MX_TIM7_Init:00000038 $d
C:\Users\Lamp\AppData\Local\Temp\ccRhHewj.s:1063   .bss.htim7:00000000 htim7
C:\Users\Lamp\AppData\Local\Temp\ccRhHewj.s:303    .text.HAL_TIM_IC_CaptureCallback:00000000 $t
C:\Users\Lamp\AppData\Local\Temp\ccRhHewj.s:309    .text.HAL_TIM_IC_CaptureCallback:00000000 HAL_TIM_IC_CaptureCallback
C:\Users\Lamp\AppData\Local\Temp\ccRhHewj.s:433    .text.HAL_TIM_IC_CaptureCallback:0000007c $d
C:\Users\Lamp\AppData\Local\Temp\ccRhHewj.s:1056   .bss.encoder_topic:00000000 encoder_topic
C:\Users\Lamp\AppData\Local\Temp\ccRhHewj.s:441    .text.HAL_TIM_PeriodElapsedCallback:00000000 $t
C:\Users\Lamp\AppData\Local\Temp\ccRhHewj.s:447    .text.HAL_TIM_PeriodElapsedCallback:00000000 HAL_TIM_PeriodElapsedCallback
C:\Users\Lamp\AppData\Local\Temp\ccRhHewj.s:526    .text.HAL_TIM_PeriodElapsedCallback:00000040 $d
C:\Users\Lamp\AppData\Local\Temp\ccRhHewj.s:1049   .rodata.time_evt.0:00000000 time_evt.0
C:\Users\Lamp\AppData\Local\Temp\ccRhHewj.s:534    .text.HAL_GPIO_EXTI_Callback:00000000 $t
C:\Users\Lamp\AppData\Local\Temp\ccRhHewj.s:540    .text.HAL_GPIO_EXTI_Callback:00000000 HAL_GPIO_EXTI_Callback
C:\Users\Lamp\AppData\Local\Temp\ccRhHewj.s:601    .text.HAL_GPIO_EXTI_Callback:00000040 $d
C:\Users\Lamp\AppData\Local\Temp\ccRhHewj.s:610    .text.EXTI1_IRQHandler:00000000 $t
C:\Users\Lamp\AppData\Local\Temp\ccRhHewj.s:616    .text.EXTI1_IRQHandler:00000000 EXTI1_IRQHandler
C:\Users\Lamp\AppData\Local\Temp\ccRhHewj.s:637    .text.Driver_Encoder_Init:00000000 $t
C:\Users\Lamp\AppData\Local\Temp\ccRhHewj.s:643    .text.Driver_Encoder_Init:00000000 Driver_Encoder_Init
C:\Users\Lamp\AppData\Local\Temp\ccRhHewj.s:674    .text.Driver_Encoder_Init:00000018 $d
C:\Users\Lamp\AppData\Local\Temp\ccRhHewj.s:679    .text.HAL_TIM_Encoder_MspInit:00000000 $t
C:\Users\Lamp\AppData\Local\Temp\ccRhHewj.s:685    .text.HAL_TIM_Encoder_MspInit:00000000 HAL_TIM_Encoder_MspInit
C:\Users\Lamp\AppData\Local\Temp\ccRhHewj.s:873    .text.HAL_TIM_Encoder_MspInit:000000cc $d
C:\Users\Lamp\AppData\Local\Temp\ccRhHewj.s:880    .text.HAL_TIM_Base_MspInit:00000000 $t
C:\Users\Lamp\AppData\Local\Temp\ccRhHewj.s:886    .text.HAL_TIM_Base_MspInit:00000000 HAL_TIM_Base_MspInit
C:\Users\Lamp\AppData\Local\Temp\ccRhHewj.s:948    .text.HAL_TIM_Base_MspInit:0000003c $d
C:\Users\Lamp\AppData\Local\Temp\ccRhHewj.s:953    .text.TIM2_IRQHandler:00000000 $t
C:\Users\Lamp\AppData\Local\Temp\ccRhHewj.s:959    .text.TIM2_IRQHandler:00000000 TIM2_IRQHandler
C:\Users\Lamp\AppData\Local\Temp\ccRhHewj.s:979    .text.TIM2_IRQHandler:0000000c $d
C:\Users\Lamp\AppData\Local\Temp\ccRhHewj.s:984    .text.TIM3_IRQHandler:00000000 $t
C:\Users\Lamp\AppData\Local\Temp\ccRhHewj.s:990    .text.TIM3_IRQHandler:00000000 TIM3_IRQHandler
C:\Users\Lamp\AppData\Local\Temp\ccRhHewj.s:1010   .text.TIM3_IRQHandler:0000000c $d
C:\Users\Lamp\AppData\Local\Temp\ccRhHewj.s:1015   .text.TIM7_IRQHandler:00000000 $t
C:\Users\Lamp\AppData\Local\Temp\ccRhHewj.s:1021   .text.TIM7_IRQHandler:00000000 TIM7_IRQHandler
C:\Users\Lamp\AppData\Local\Temp\ccRhHewj.s:1041   .text.TIM7_IRQHandler:0000000c $d
C:\Users\Lamp\AppData\Local\Temp\ccRhHewj.s:1046   .rodata.time_evt.0:00000000 $d
C:\Users\Lamp\AppData\Local\Temp\ccRhHewj.s:1053   .bss.encoder_topic:00000000 $d
C:\Users\Lamp\AppData\Local\Temp\ccRhHewj.s:1060   .bss.htim7:00000000 $d
C:\Users\Lamp\AppData\Local\Temp\ccRhHewj.s:1067   .bss.htim3:00000000 $d
C:\Users\Lamp\AppData\Local\Temp\ccRhHewj.s:1074   .bss.htim2:00000000 $d

UNDEFINED SYMBOLS
memset
HAL_TIM_Encoder_Init
HAL_TIMEx_MasterConfigSynchronization
HAL_TIM_Base_Init
estimator
ARM GAS  C:\Users\Lamp\AppData\Local\Temp\ccRhHewj.s 			page 28


AO_Estimator
HAL_GPIO_TogglePin
HAL_GPIO_EXTI_IRQHandler
HAL_GPIO_Init
HAL_NVIC_SetPriority
HAL_NVIC_EnableIRQ
HAL_TIM_IRQHandler
