ARM GAS  C:\Users\Lamp\AppData\Local\Temp\ccd3enU2.s 			page 1


   1              		.cpu cortex-m4
   2              		.arch armv7e-m
   3              		.fpu fpv4-sp-d16
   4              		.eabi_attribute 27, 1
   5              		.eabi_attribute 28, 1
   6              		.eabi_attribute 20, 1
   7              		.eabi_attribute 21, 1
   8              		.eabi_attribute 23, 3
   9              		.eabi_attribute 24, 1
  10              		.eabi_attribute 25, 1
  11              		.eabi_attribute 26, 1
  12              		.eabi_attribute 30, 1
  13              		.eabi_attribute 34, 1
  14              		.eabi_attribute 18, 4
  15              		.file	"timer.c"
  16              		.text
  17              	.Ltext0:
  18              		.cfi_sections	.debug_frame
  19              		.file 1 "Core/Src/Drivers/Src/timer.c"
  20              		.section	.text.MX_TIM2_Init,"ax",%progbits
  21              		.align	1
  22              		.syntax unified
  23              		.thumb
  24              		.thumb_func
  26              	MX_TIM2_Init:
  27              	.LFB180:
   1:Core/Src/Drivers/Src/timer.c **** #include "timer.h"
   2:Core/Src/Drivers/Src/timer.c **** 
   3:Core/Src/Drivers/Src/timer.c **** TIM_HandleTypeDef htim2;
   4:Core/Src/Drivers/Src/timer.c **** TIM_HandleTypeDef htim3;
   5:Core/Src/Drivers/Src/timer.c **** TIM_HandleTypeDef htim7;
   6:Core/Src/Drivers/Src/timer.c **** 
   7:Core/Src/Drivers/Src/timer.c **** extern struct Active * AO_Estimator;
   8:Core/Src/Drivers/Src/timer.c **** extern struct Estimator * estimator;
   9:Core/Src/Drivers/Src/timer.c **** 
  10:Core/Src/Drivers/Src/timer.c **** static void MX_TIM2_Init(void);
  11:Core/Src/Drivers/Src/timer.c **** static void MX_TIM3_Init(void);
  12:Core/Src/Drivers/Src/timer.c **** static void MX_TIM7_Init(void);
  13:Core/Src/Drivers/Src/timer.c **** 
  14:Core/Src/Drivers/Src/timer.c **** Encoder encoder_topic;
  15:Core/Src/Drivers/Src/timer.c **** int32_t Pre_PendulumCnt = 0;
  16:Core/Src/Drivers/Src/timer.c **** 
  17:Core/Src/Drivers/Src/timer.c **** /**
  18:Core/Src/Drivers/Src/timer.c ****   * @brief  Input Capture callback in non-blocking mode
  19:Core/Src/Drivers/Src/timer.c ****   * @param  htim TIM IC handle
  20:Core/Src/Drivers/Src/timer.c ****   * @retval None
  21:Core/Src/Drivers/Src/timer.c ****   */
  22:Core/Src/Drivers/Src/timer.c **** void HAL_TIM_IC_CaptureCallback (TIM_HandleTypeDef *htim) {
  23:Core/Src/Drivers/Src/timer.c ****   BaseType_t xHigherPriorityTaskWoken = pdFALSE;
  24:Core/Src/Drivers/Src/timer.c ****   if (htim->Instance == TIM2) {
  25:Core/Src/Drivers/Src/timer.c ****     /* Read motor encoder counter value */
  26:Core/Src/Drivers/Src/timer.c ****     encoder_topic.MotorCnt = (int32_t)((uint32_t)__HAL_TIM_GET_COUNTER(htim));
  27:Core/Src/Drivers/Src/timer.c ****     estimator->publicFromISR(estimator->encoder_sub, &encoder_topic, &xHigherPriorityTaskWoken);
  28:Core/Src/Drivers/Src/timer.c ****   }
  29:Core/Src/Drivers/Src/timer.c ****   else if (htim->Instance == TIM3) {
  30:Core/Src/Drivers/Src/timer.c ****     /* Read pendullum encoder counter value */
  31:Core/Src/Drivers/Src/timer.c ****     encoder_topic.PendulumCnt = (int16_t)((uint32_t) __HAL_TIM_GET_COUNTER(htim));
ARM GAS  C:\Users\Lamp\AppData\Local\Temp\ccd3enU2.s 			page 2


  32:Core/Src/Drivers/Src/timer.c ****     if (encoder_topic.PendulumCnt >= 4000 || encoder_topic.PendulumCnt <= -4000 ) {
  33:Core/Src/Drivers/Src/timer.c ****       __HAL_TIM_SET_COUNTER(&htim3, 0);
  34:Core/Src/Drivers/Src/timer.c ****     }
  35:Core/Src/Drivers/Src/timer.c ****     estimator->publicFromISR(estimator->encoder_sub, &encoder_topic, &xHigherPriorityTaskWoken);
  36:Core/Src/Drivers/Src/timer.c ****   }
  37:Core/Src/Drivers/Src/timer.c ****   portEND_SWITCHING_ISR(xHigherPriorityTaskWoken);
  38:Core/Src/Drivers/Src/timer.c **** }
  39:Core/Src/Drivers/Src/timer.c **** 
  40:Core/Src/Drivers/Src/timer.c **** /**
  41:Core/Src/Drivers/Src/timer.c ****   * @brief  Period elapsed callback in non-blocking mode
  42:Core/Src/Drivers/Src/timer.c ****   * @param  htim TIM handle
  43:Core/Src/Drivers/Src/timer.c ****   * @retval None
  44:Core/Src/Drivers/Src/timer.c ****   */
  45:Core/Src/Drivers/Src/timer.c **** void HAL_TIM_PeriodElapsedCallback(TIM_HandleTypeDef *htim) {
  46:Core/Src/Drivers/Src/timer.c **** 
  47:Core/Src/Drivers/Src/timer.c ****   BaseType_t xHigherPriorityTaskWoken = pdFALSE;
  48:Core/Src/Drivers/Src/timer.c ****   
  49:Core/Src/Drivers/Src/timer.c ****   if(htim->Instance == TIM7) {
  50:Core/Src/Drivers/Src/timer.c ****     static const Event time_evt = {TIMEOUT_1kHz_SIG};
  51:Core/Src/Drivers/Src/timer.c ****     AO_Estimator->postFromISR(AO_Estimator, &time_evt, &xHigherPriorityTaskWoken);
  52:Core/Src/Drivers/Src/timer.c ****   }
  53:Core/Src/Drivers/Src/timer.c **** 
  54:Core/Src/Drivers/Src/timer.c ****   portEND_SWITCHING_ISR(xHigherPriorityTaskWoken);
  55:Core/Src/Drivers/Src/timer.c **** }
  56:Core/Src/Drivers/Src/timer.c **** 
  57:Core/Src/Drivers/Src/timer.c **** int32_t checkcnt = 0;
  58:Core/Src/Drivers/Src/timer.c **** void HAL_GPIO_EXTI_Callback(uint16_t GPIO_Pin) {
  59:Core/Src/Drivers/Src/timer.c ****   if (GPIO_Pin == GPIO_PIN_1) {
  60:Core/Src/Drivers/Src/timer.c ****     if (encoder_topic.PendulumCnt < 0) __HAL_TIM_SET_COUNTER(&htim3, -216);
  61:Core/Src/Drivers/Src/timer.c ****     else __HAL_TIM_SET_COUNTER(&htim3, -3780);
  62:Core/Src/Drivers/Src/timer.c **** 
  63:Core/Src/Drivers/Src/timer.c ****     /* Search Phase Z */
  64:Core/Src/Drivers/Src/timer.c ****     checkcnt = encoder_topic.PendulumCnt;
  65:Core/Src/Drivers/Src/timer.c ****     HAL_GPIO_TogglePin(GPIOD, GPIO_PIN_12);
  66:Core/Src/Drivers/Src/timer.c ****   }
  67:Core/Src/Drivers/Src/timer.c **** }
  68:Core/Src/Drivers/Src/timer.c **** 
  69:Core/Src/Drivers/Src/timer.c **** void EXTI1_IRQHandler(void) {
  70:Core/Src/Drivers/Src/timer.c ****   HAL_GPIO_EXTI_IRQHandler(GPIO_PIN_1); // Xử lý ngắt
  71:Core/Src/Drivers/Src/timer.c **** }
  72:Core/Src/Drivers/Src/timer.c **** 
  73:Core/Src/Drivers/Src/timer.c **** /**
  74:Core/Src/Drivers/Src/timer.c ****   * @brief This function initialize USART1.
  75:Core/Src/Drivers/Src/timer.c ****   */
  76:Core/Src/Drivers/Src/timer.c **** void Driver_Encoder_Init()
  77:Core/Src/Drivers/Src/timer.c **** {
  78:Core/Src/Drivers/Src/timer.c ****   MX_TIM2_Init(); // Motor encoder
  79:Core/Src/Drivers/Src/timer.c ****   MX_TIM3_Init(); // Pendullum encoder
  80:Core/Src/Drivers/Src/timer.c ****   MX_TIM7_Init(); // 1kHz timer
  81:Core/Src/Drivers/Src/timer.c ****   
  82:Core/Src/Drivers/Src/timer.c **** 
  83:Core/Src/Drivers/Src/timer.c ****   encoder_topic = (Encoder) {.MotorCnt = 0, .PendulumCnt = 0};
  84:Core/Src/Drivers/Src/timer.c ****   // HAL_TIM_Encoder_Start_IT(&htim2, TIM_CHANNEL_ALL);
  85:Core/Src/Drivers/Src/timer.c ****   // HAL_TIM_Encoder_Start_IT(&htim3, TIM_CHANNEL_ALL);
  86:Core/Src/Drivers/Src/timer.c **** }
  87:Core/Src/Drivers/Src/timer.c **** 
  88:Core/Src/Drivers/Src/timer.c **** /**
ARM GAS  C:\Users\Lamp\AppData\Local\Temp\ccd3enU2.s 			page 3


  89:Core/Src/Drivers/Src/timer.c ****   * @brief TIM2 Initialization Function
  90:Core/Src/Drivers/Src/timer.c ****   * @param None
  91:Core/Src/Drivers/Src/timer.c ****   * @retval None
  92:Core/Src/Drivers/Src/timer.c ****   */
  93:Core/Src/Drivers/Src/timer.c **** static void MX_TIM2_Init(void) {
  28              		.loc 1 93 32 view -0
  29              		.cfi_startproc
  30              		@ args = 0, pretend = 0, frame = 48
  31              		@ frame_needed = 0, uses_anonymous_args = 0
  32 0000 30B5     		push	{r4, r5, lr}
  33              	.LCFI0:
  34              		.cfi_def_cfa_offset 12
  35              		.cfi_offset 4, -12
  36              		.cfi_offset 5, -8
  37              		.cfi_offset 14, -4
  38 0002 8DB0     		sub	sp, sp, #52
  39              	.LCFI1:
  40              		.cfi_def_cfa_offset 64
  94:Core/Src/Drivers/Src/timer.c ****   TIM_Encoder_InitTypeDef sConfig = {0};
  41              		.loc 1 94 3 view .LVU1
  42              		.loc 1 94 27 is_stmt 0 view .LVU2
  43 0004 2422     		movs	r2, #36
  44 0006 0021     		movs	r1, #0
  45 0008 03A8     		add	r0, sp, #12
  46 000a FFF7FEFF 		bl	memset
  47              	.LVL0:
  95:Core/Src/Drivers/Src/timer.c ****   TIM_MasterConfigTypeDef sMasterConfig = {0};
  48              		.loc 1 95 3 is_stmt 1 view .LVU3
  49              		.loc 1 95 27 is_stmt 0 view .LVU4
  50 000e 0025     		movs	r5, #0
  51 0010 0195     		str	r5, [sp, #4]
  52 0012 0295     		str	r5, [sp, #8]
  96:Core/Src/Drivers/Src/timer.c **** 
  97:Core/Src/Drivers/Src/timer.c ****   /* USER CODE BEGIN TIM2_Init 1 */
  98:Core/Src/Drivers/Src/timer.c **** 
  99:Core/Src/Drivers/Src/timer.c ****   /* USER CODE END TIM2_Init 1 */
 100:Core/Src/Drivers/Src/timer.c ****   htim2.Instance = TIM2;
  53              		.loc 1 100 3 is_stmt 1 view .LVU5
  54              		.loc 1 100 18 is_stmt 0 view .LVU6
  55 0014 0E4C     		ldr	r4, .L3
  56 0016 4FF08043 		mov	r3, #1073741824
  57 001a 2360     		str	r3, [r4]
 101:Core/Src/Drivers/Src/timer.c ****   htim2.Init.Prescaler = 0;
  58              		.loc 1 101 3 is_stmt 1 view .LVU7
  59              		.loc 1 101 24 is_stmt 0 view .LVU8
  60 001c 6560     		str	r5, [r4, #4]
 102:Core/Src/Drivers/Src/timer.c ****   htim2.Init.CounterMode = TIM_COUNTERMODE_UP;
  61              		.loc 1 102 3 is_stmt 1 view .LVU9
  62              		.loc 1 102 26 is_stmt 0 view .LVU10
  63 001e A560     		str	r5, [r4, #8]
 103:Core/Src/Drivers/Src/timer.c ****   htim2.Init.Period = 4294967295; /* 0 -> (2^32) - 1*/
  64              		.loc 1 103 3 is_stmt 1 view .LVU11
  65              		.loc 1 103 21 is_stmt 0 view .LVU12
  66 0020 4FF0FF33 		mov	r3, #-1
  67 0024 E360     		str	r3, [r4, #12]
 104:Core/Src/Drivers/Src/timer.c ****   htim2.Init.ClockDivision = TIM_CLOCKDIVISION_DIV1;
  68              		.loc 1 104 3 is_stmt 1 view .LVU13
ARM GAS  C:\Users\Lamp\AppData\Local\Temp\ccd3enU2.s 			page 4


  69              		.loc 1 104 28 is_stmt 0 view .LVU14
  70 0026 2561     		str	r5, [r4, #16]
 105:Core/Src/Drivers/Src/timer.c ****   htim2.Init.AutoReloadPreload = TIM_AUTORELOAD_PRELOAD_ENABLE;
  71              		.loc 1 105 3 is_stmt 1 view .LVU15
  72              		.loc 1 105 32 is_stmt 0 view .LVU16
  73 0028 8023     		movs	r3, #128
  74 002a A361     		str	r3, [r4, #24]
 106:Core/Src/Drivers/Src/timer.c ****   sConfig.EncoderMode = TIM_ENCODERMODE_TI12;
  75              		.loc 1 106 3 is_stmt 1 view .LVU17
  76              		.loc 1 106 23 is_stmt 0 view .LVU18
  77 002c 0323     		movs	r3, #3
  78 002e 0393     		str	r3, [sp, #12]
 107:Core/Src/Drivers/Src/timer.c ****   sConfig.IC1Polarity = TIM_ICPOLARITY_RISING;
  79              		.loc 1 107 3 is_stmt 1 view .LVU19
 108:Core/Src/Drivers/Src/timer.c ****   sConfig.IC1Selection = TIM_ICSELECTION_DIRECTTI;
  80              		.loc 1 108 3 view .LVU20
  81              		.loc 1 108 24 is_stmt 0 view .LVU21
  82 0030 0123     		movs	r3, #1
  83 0032 0593     		str	r3, [sp, #20]
 109:Core/Src/Drivers/Src/timer.c ****   sConfig.IC1Prescaler = TIM_ICPSC_DIV1;
  84              		.loc 1 109 3 is_stmt 1 view .LVU22
 110:Core/Src/Drivers/Src/timer.c ****   sConfig.IC1Filter = 0;
  85              		.loc 1 110 3 view .LVU23
 111:Core/Src/Drivers/Src/timer.c ****   sConfig.IC2Polarity = TIM_ICPOLARITY_RISING;
  86              		.loc 1 111 3 view .LVU24
 112:Core/Src/Drivers/Src/timer.c ****   sConfig.IC2Selection = TIM_ICSELECTION_DIRECTTI;
  87              		.loc 1 112 3 view .LVU25
  88              		.loc 1 112 24 is_stmt 0 view .LVU26
  89 0034 0993     		str	r3, [sp, #36]
 113:Core/Src/Drivers/Src/timer.c ****   sConfig.IC2Prescaler = TIM_ICPSC_DIV1;
  90              		.loc 1 113 3 is_stmt 1 view .LVU27
 114:Core/Src/Drivers/Src/timer.c ****   sConfig.IC2Filter = 0;
  91              		.loc 1 114 3 view .LVU28
 115:Core/Src/Drivers/Src/timer.c ****   HAL_TIM_Encoder_Init(&htim2, &sConfig);
  92              		.loc 1 115 3 view .LVU29
  93 0036 03A9     		add	r1, sp, #12
  94 0038 2046     		mov	r0, r4
  95 003a FFF7FEFF 		bl	HAL_TIM_Encoder_Init
  96              	.LVL1:
 116:Core/Src/Drivers/Src/timer.c ****   sMasterConfig.MasterOutputTrigger = TIM_TRGO_RESET;
  97              		.loc 1 116 3 view .LVU30
  98              		.loc 1 116 37 is_stmt 0 view .LVU31
  99 003e 0195     		str	r5, [sp, #4]
 117:Core/Src/Drivers/Src/timer.c ****   sMasterConfig.MasterSlaveMode = TIM_MASTERSLAVEMODE_DISABLE;
 100              		.loc 1 117 3 is_stmt 1 view .LVU32
 101              		.loc 1 117 33 is_stmt 0 view .LVU33
 102 0040 0295     		str	r5, [sp, #8]
 118:Core/Src/Drivers/Src/timer.c ****   HAL_TIMEx_MasterConfigSynchronization(&htim2, &sMasterConfig);
 103              		.loc 1 118 3 is_stmt 1 view .LVU34
 104 0042 01A9     		add	r1, sp, #4
 105 0044 2046     		mov	r0, r4
 106 0046 FFF7FEFF 		bl	HAL_TIMEx_MasterConfigSynchronization
 107              	.LVL2:
 119:Core/Src/Drivers/Src/timer.c **** }
 108              		.loc 1 119 1 is_stmt 0 view .LVU35
 109 004a 0DB0     		add	sp, sp, #52
 110              	.LCFI2:
ARM GAS  C:\Users\Lamp\AppData\Local\Temp\ccd3enU2.s 			page 5


 111              		.cfi_def_cfa_offset 12
 112              		@ sp needed
 113 004c 30BD     		pop	{r4, r5, pc}
 114              	.L4:
 115 004e 00BF     		.align	2
 116              	.L3:
 117 0050 00000000 		.word	htim2
 118              		.cfi_endproc
 119              	.LFE180:
 121              		.section	.text.MX_TIM3_Init,"ax",%progbits
 122              		.align	1
 123              		.syntax unified
 124              		.thumb
 125              		.thumb_func
 127              	MX_TIM3_Init:
 128              	.LFB181:
 120:Core/Src/Drivers/Src/timer.c **** 
 121:Core/Src/Drivers/Src/timer.c **** /**
 122:Core/Src/Drivers/Src/timer.c ****   * @brief TIM3 Initialization Function
 123:Core/Src/Drivers/Src/timer.c ****   * @param None
 124:Core/Src/Drivers/Src/timer.c ****   * @retval None
 125:Core/Src/Drivers/Src/timer.c ****   */
 126:Core/Src/Drivers/Src/timer.c **** static void MX_TIM3_Init(void) {
 129              		.loc 1 126 32 is_stmt 1 view -0
 130              		.cfi_startproc
 131              		@ args = 0, pretend = 0, frame = 48
 132              		@ frame_needed = 0, uses_anonymous_args = 0
 133 0000 30B5     		push	{r4, r5, lr}
 134              	.LCFI3:
 135              		.cfi_def_cfa_offset 12
 136              		.cfi_offset 4, -12
 137              		.cfi_offset 5, -8
 138              		.cfi_offset 14, -4
 139 0002 8DB0     		sub	sp, sp, #52
 140              	.LCFI4:
 141              		.cfi_def_cfa_offset 64
 127:Core/Src/Drivers/Src/timer.c ****   TIM_Encoder_InitTypeDef sConfig = {0};
 142              		.loc 1 127 3 view .LVU37
 143              		.loc 1 127 27 is_stmt 0 view .LVU38
 144 0004 2422     		movs	r2, #36
 145 0006 0021     		movs	r1, #0
 146 0008 03A8     		add	r0, sp, #12
 147 000a FFF7FEFF 		bl	memset
 148              	.LVL3:
 128:Core/Src/Drivers/Src/timer.c ****   TIM_MasterConfigTypeDef sMasterConfig = {0};
 149              		.loc 1 128 3 is_stmt 1 view .LVU39
 150              		.loc 1 128 27 is_stmt 0 view .LVU40
 151 000e 0025     		movs	r5, #0
 152 0010 0195     		str	r5, [sp, #4]
 153 0012 0295     		str	r5, [sp, #8]
 129:Core/Src/Drivers/Src/timer.c **** 
 130:Core/Src/Drivers/Src/timer.c ****   /* USER CODE BEGIN TIM3_Init 1 */
 131:Core/Src/Drivers/Src/timer.c **** 
 132:Core/Src/Drivers/Src/timer.c ****   /* USER CODE END TIM3_Init 1 */
 133:Core/Src/Drivers/Src/timer.c ****   htim3.Instance = TIM3;
 154              		.loc 1 133 3 is_stmt 1 view .LVU41
 155              		.loc 1 133 18 is_stmt 0 view .LVU42
ARM GAS  C:\Users\Lamp\AppData\Local\Temp\ccd3enU2.s 			page 6


 156 0014 0D4C     		ldr	r4, .L7
 157 0016 0E4B     		ldr	r3, .L7+4
 158 0018 2360     		str	r3, [r4]
 134:Core/Src/Drivers/Src/timer.c ****   htim3.Init.Prescaler = 0;
 159              		.loc 1 134 3 is_stmt 1 view .LVU43
 160              		.loc 1 134 24 is_stmt 0 view .LVU44
 161 001a 6560     		str	r5, [r4, #4]
 135:Core/Src/Drivers/Src/timer.c ****   htim3.Init.CounterMode = TIM_COUNTERMODE_UP;
 162              		.loc 1 135 3 is_stmt 1 view .LVU45
 163              		.loc 1 135 26 is_stmt 0 view .LVU46
 164 001c A560     		str	r5, [r4, #8]
 136:Core/Src/Drivers/Src/timer.c ****   htim3.Init.Period = 65535; /* 0 -> (2^16) - 1*/
 165              		.loc 1 136 3 is_stmt 1 view .LVU47
 166              		.loc 1 136 21 is_stmt 0 view .LVU48
 167 001e 4FF6FF73 		movw	r3, #65535
 168 0022 E360     		str	r3, [r4, #12]
 137:Core/Src/Drivers/Src/timer.c ****   htim3.Init.ClockDivision = TIM_CLOCKDIVISION_DIV1;
 169              		.loc 1 137 3 is_stmt 1 view .LVU49
 170              		.loc 1 137 28 is_stmt 0 view .LVU50
 171 0024 2561     		str	r5, [r4, #16]
 138:Core/Src/Drivers/Src/timer.c ****   htim3.Init.AutoReloadPreload = TIM_AUTORELOAD_PRELOAD_ENABLE;
 172              		.loc 1 138 3 is_stmt 1 view .LVU51
 173              		.loc 1 138 32 is_stmt 0 view .LVU52
 174 0026 8023     		movs	r3, #128
 175 0028 A361     		str	r3, [r4, #24]
 139:Core/Src/Drivers/Src/timer.c ****   sConfig.EncoderMode = TIM_ENCODERMODE_TI12;
 176              		.loc 1 139 3 is_stmt 1 view .LVU53
 177              		.loc 1 139 23 is_stmt 0 view .LVU54
 178 002a 0323     		movs	r3, #3
 179 002c 0393     		str	r3, [sp, #12]
 140:Core/Src/Drivers/Src/timer.c ****   sConfig.IC1Polarity = TIM_ICPOLARITY_RISING;
 180              		.loc 1 140 3 is_stmt 1 view .LVU55
 141:Core/Src/Drivers/Src/timer.c ****   sConfig.IC1Selection = TIM_ICSELECTION_DIRECTTI;
 181              		.loc 1 141 3 view .LVU56
 182              		.loc 1 141 24 is_stmt 0 view .LVU57
 183 002e 0123     		movs	r3, #1
 184 0030 0593     		str	r3, [sp, #20]
 142:Core/Src/Drivers/Src/timer.c ****   sConfig.IC1Prescaler = TIM_ICPSC_DIV1;
 185              		.loc 1 142 3 is_stmt 1 view .LVU58
 143:Core/Src/Drivers/Src/timer.c ****   sConfig.IC1Filter = 0;
 186              		.loc 1 143 3 view .LVU59
 144:Core/Src/Drivers/Src/timer.c ****   sConfig.IC2Polarity = TIM_ICPOLARITY_RISING;
 187              		.loc 1 144 3 view .LVU60
 145:Core/Src/Drivers/Src/timer.c ****   sConfig.IC2Selection = TIM_ICSELECTION_DIRECTTI;
 188              		.loc 1 145 3 view .LVU61
 189              		.loc 1 145 24 is_stmt 0 view .LVU62
 190 0032 0993     		str	r3, [sp, #36]
 146:Core/Src/Drivers/Src/timer.c ****   sConfig.IC2Prescaler = TIM_ICPSC_DIV1;
 191              		.loc 1 146 3 is_stmt 1 view .LVU63
 147:Core/Src/Drivers/Src/timer.c ****   sConfig.IC2Filter = 0;
 192              		.loc 1 147 3 view .LVU64
 148:Core/Src/Drivers/Src/timer.c ****   HAL_TIM_Encoder_Init(&htim3, &sConfig);
 193              		.loc 1 148 3 view .LVU65
 194 0034 03A9     		add	r1, sp, #12
 195 0036 2046     		mov	r0, r4
 196 0038 FFF7FEFF 		bl	HAL_TIM_Encoder_Init
 197              	.LVL4:
ARM GAS  C:\Users\Lamp\AppData\Local\Temp\ccd3enU2.s 			page 7


 149:Core/Src/Drivers/Src/timer.c ****   sMasterConfig.MasterOutputTrigger = TIM_TRGO_RESET;
 198              		.loc 1 149 3 view .LVU66
 199              		.loc 1 149 37 is_stmt 0 view .LVU67
 200 003c 0195     		str	r5, [sp, #4]
 150:Core/Src/Drivers/Src/timer.c ****   sMasterConfig.MasterSlaveMode = TIM_MASTERSLAVEMODE_DISABLE;
 201              		.loc 1 150 3 is_stmt 1 view .LVU68
 202              		.loc 1 150 33 is_stmt 0 view .LVU69
 203 003e 0295     		str	r5, [sp, #8]
 151:Core/Src/Drivers/Src/timer.c ****   HAL_TIMEx_MasterConfigSynchronization(&htim3, &sMasterConfig);
 204              		.loc 1 151 3 is_stmt 1 view .LVU70
 205 0040 01A9     		add	r1, sp, #4
 206 0042 2046     		mov	r0, r4
 207 0044 FFF7FEFF 		bl	HAL_TIMEx_MasterConfigSynchronization
 208              	.LVL5:
 152:Core/Src/Drivers/Src/timer.c **** }
 209              		.loc 1 152 1 is_stmt 0 view .LVU71
 210 0048 0DB0     		add	sp, sp, #52
 211              	.LCFI5:
 212              		.cfi_def_cfa_offset 12
 213              		@ sp needed
 214 004a 30BD     		pop	{r4, r5, pc}
 215              	.L8:
 216              		.align	2
 217              	.L7:
 218 004c 00000000 		.word	htim3
 219 0050 00040040 		.word	1073742848
 220              		.cfi_endproc
 221              	.LFE181:
 223              		.section	.text.MX_TIM7_Init,"ax",%progbits
 224              		.align	1
 225              		.syntax unified
 226              		.thumb
 227              		.thumb_func
 229              	MX_TIM7_Init:
 230              	.LFB182:
 153:Core/Src/Drivers/Src/timer.c **** 
 154:Core/Src/Drivers/Src/timer.c **** /**
 155:Core/Src/Drivers/Src/timer.c ****   * @brief TIM7 Initialization Function
 156:Core/Src/Drivers/Src/timer.c ****   * @param None
 157:Core/Src/Drivers/Src/timer.c ****   * @retval None
 158:Core/Src/Drivers/Src/timer.c ****   */
 159:Core/Src/Drivers/Src/timer.c **** static void MX_TIM7_Init(void)
 160:Core/Src/Drivers/Src/timer.c **** {
 231              		.loc 1 160 1 is_stmt 1 view -0
 232              		.cfi_startproc
 233              		@ args = 0, pretend = 0, frame = 8
 234              		@ frame_needed = 0, uses_anonymous_args = 0
 235 0000 30B5     		push	{r4, r5, lr}
 236              	.LCFI6:
 237              		.cfi_def_cfa_offset 12
 238              		.cfi_offset 4, -12
 239              		.cfi_offset 5, -8
 240              		.cfi_offset 14, -4
 241 0002 83B0     		sub	sp, sp, #12
 242              	.LCFI7:
 243              		.cfi_def_cfa_offset 24
 161:Core/Src/Drivers/Src/timer.c ****   TIM_MasterConfigTypeDef sMasterConfig = {0};
ARM GAS  C:\Users\Lamp\AppData\Local\Temp\ccd3enU2.s 			page 8


 244              		.loc 1 161 3 view .LVU73
 245              		.loc 1 161 27 is_stmt 0 view .LVU74
 246 0004 0025     		movs	r5, #0
 247 0006 0095     		str	r5, [sp]
 248 0008 0195     		str	r5, [sp, #4]
 162:Core/Src/Drivers/Src/timer.c **** 
 163:Core/Src/Drivers/Src/timer.c ****   htim7.Instance = TIM7;
 249              		.loc 1 163 3 is_stmt 1 view .LVU75
 250              		.loc 1 163 18 is_stmt 0 view .LVU76
 251 000a 0B4C     		ldr	r4, .L11
 252 000c 0B4B     		ldr	r3, .L11+4
 253 000e 2360     		str	r3, [r4]
 164:Core/Src/Drivers/Src/timer.c ****   htim7.Init.Prescaler = 84;
 254              		.loc 1 164 3 is_stmt 1 view .LVU77
 255              		.loc 1 164 24 is_stmt 0 view .LVU78
 256 0010 5423     		movs	r3, #84
 257 0012 6360     		str	r3, [r4, #4]
 165:Core/Src/Drivers/Src/timer.c ****   htim7.Init.CounterMode = TIM_COUNTERMODE_UP;
 258              		.loc 1 165 3 is_stmt 1 view .LVU79
 259              		.loc 1 165 26 is_stmt 0 view .LVU80
 260 0014 A560     		str	r5, [r4, #8]
 166:Core/Src/Drivers/Src/timer.c ****   htim7.Init.Period = 1000;
 261              		.loc 1 166 3 is_stmt 1 view .LVU81
 262              		.loc 1 166 21 is_stmt 0 view .LVU82
 263 0016 4FF47A73 		mov	r3, #1000
 264 001a E360     		str	r3, [r4, #12]
 167:Core/Src/Drivers/Src/timer.c ****   htim7.Init.AutoReloadPreload = TIM_AUTORELOAD_PRELOAD_ENABLE;
 265              		.loc 1 167 3 is_stmt 1 view .LVU83
 266              		.loc 1 167 32 is_stmt 0 view .LVU84
 267 001c 8023     		movs	r3, #128
 268 001e A361     		str	r3, [r4, #24]
 168:Core/Src/Drivers/Src/timer.c ****   if (HAL_TIM_Base_Init(&htim7) != HAL_OK)
 269              		.loc 1 168 3 is_stmt 1 view .LVU85
 270              		.loc 1 168 7 is_stmt 0 view .LVU86
 271 0020 2046     		mov	r0, r4
 272 0022 FFF7FEFF 		bl	HAL_TIM_Base_Init
 273              	.LVL6:
 169:Core/Src/Drivers/Src/timer.c ****   {
 170:Core/Src/Drivers/Src/timer.c ****     // Error_Handler();
 171:Core/Src/Drivers/Src/timer.c ****   }
 274              		.loc 1 171 3 is_stmt 1 view .LVU87
 172:Core/Src/Drivers/Src/timer.c **** 
 173:Core/Src/Drivers/Src/timer.c ****   sMasterConfig.MasterOutputTrigger = TIM_TRGO_RESET;
 275              		.loc 1 173 3 view .LVU88
 276              		.loc 1 173 37 is_stmt 0 view .LVU89
 277 0026 0095     		str	r5, [sp]
 174:Core/Src/Drivers/Src/timer.c ****   sMasterConfig.MasterSlaveMode = TIM_MASTERSLAVEMODE_DISABLE;
 278              		.loc 1 174 3 is_stmt 1 view .LVU90
 279              		.loc 1 174 33 is_stmt 0 view .LVU91
 280 0028 0195     		str	r5, [sp, #4]
 175:Core/Src/Drivers/Src/timer.c ****   if (HAL_TIMEx_MasterConfigSynchronization(&htim7, &sMasterConfig) != HAL_OK)
 281              		.loc 1 175 3 is_stmt 1 view .LVU92
 282              		.loc 1 175 7 is_stmt 0 view .LVU93
 283 002a 6946     		mov	r1, sp
 284 002c 2046     		mov	r0, r4
 285 002e FFF7FEFF 		bl	HAL_TIMEx_MasterConfigSynchronization
 286              	.LVL7:
ARM GAS  C:\Users\Lamp\AppData\Local\Temp\ccd3enU2.s 			page 9


 176:Core/Src/Drivers/Src/timer.c ****   {
 177:Core/Src/Drivers/Src/timer.c ****     // Error_Handler();
 178:Core/Src/Drivers/Src/timer.c ****   }
 287              		.loc 1 178 3 is_stmt 1 view .LVU94
 179:Core/Src/Drivers/Src/timer.c **** }
 288              		.loc 1 179 1 is_stmt 0 view .LVU95
 289 0032 03B0     		add	sp, sp, #12
 290              	.LCFI8:
 291              		.cfi_def_cfa_offset 12
 292              		@ sp needed
 293 0034 30BD     		pop	{r4, r5, pc}
 294              	.L12:
 295 0036 00BF     		.align	2
 296              	.L11:
 297 0038 00000000 		.word	htim7
 298 003c 00140040 		.word	1073746944
 299              		.cfi_endproc
 300              	.LFE182:
 302              		.section	.text.HAL_TIM_IC_CaptureCallback,"ax",%progbits
 303              		.align	1
 304              		.global	HAL_TIM_IC_CaptureCallback
 305              		.syntax unified
 306              		.thumb
 307              		.thumb_func
 309              	HAL_TIM_IC_CaptureCallback:
 310              	.LVL8:
 311              	.LFB175:
  22:Core/Src/Drivers/Src/timer.c ****   BaseType_t xHigherPriorityTaskWoken = pdFALSE;
 312              		.loc 1 22 59 is_stmt 1 view -0
 313              		.cfi_startproc
 314              		@ args = 0, pretend = 0, frame = 8
 315              		@ frame_needed = 0, uses_anonymous_args = 0
  22:Core/Src/Drivers/Src/timer.c ****   BaseType_t xHigherPriorityTaskWoken = pdFALSE;
 316              		.loc 1 22 59 is_stmt 0 view .LVU97
 317 0000 10B5     		push	{r4, lr}
 318              	.LCFI9:
 319              		.cfi_def_cfa_offset 8
 320              		.cfi_offset 4, -8
 321              		.cfi_offset 14, -4
 322 0002 82B0     		sub	sp, sp, #8
 323              	.LCFI10:
 324              		.cfi_def_cfa_offset 16
  23:Core/Src/Drivers/Src/timer.c ****   if (htim->Instance == TIM2) {
 325              		.loc 1 23 3 is_stmt 1 view .LVU98
  23:Core/Src/Drivers/Src/timer.c ****   if (htim->Instance == TIM2) {
 326              		.loc 1 23 14 is_stmt 0 view .LVU99
 327 0004 0023     		movs	r3, #0
 328 0006 0193     		str	r3, [sp, #4]
  24:Core/Src/Drivers/Src/timer.c ****     /* Read motor encoder counter value */
 329              		.loc 1 24 3 is_stmt 1 view .LVU100
  24:Core/Src/Drivers/Src/timer.c ****     /* Read motor encoder counter value */
 330              		.loc 1 24 11 is_stmt 0 view .LVU101
 331 0008 0368     		ldr	r3, [r0]
  24:Core/Src/Drivers/Src/timer.c ****     /* Read motor encoder counter value */
 332              		.loc 1 24 6 view .LVU102
 333 000a B3F1804F 		cmp	r3, #1073741824
 334 000e 10D0     		beq	.L19
ARM GAS  C:\Users\Lamp\AppData\Local\Temp\ccd3enU2.s 			page 10


  29:Core/Src/Drivers/Src/timer.c ****     /* Read pendullum encoder counter value */
 335              		.loc 1 29 8 is_stmt 1 view .LVU103
  29:Core/Src/Drivers/Src/timer.c ****     /* Read pendullum encoder counter value */
 336              		.loc 1 29 11 is_stmt 0 view .LVU104
 337 0010 1A4A     		ldr	r2, .L21
 338 0012 9342     		cmp	r3, r2
 339 0014 19D0     		beq	.L20
 340              	.LVL9:
 341              	.L15:
  37:Core/Src/Drivers/Src/timer.c **** }
 342              		.loc 1 37 3 is_stmt 1 view .LVU105
  37:Core/Src/Drivers/Src/timer.c **** }
 343              		.loc 1 37 3 view .LVU106
 344 0016 019B     		ldr	r3, [sp, #4]
 345 0018 4BB1     		cbz	r3, .L13
  37:Core/Src/Drivers/Src/timer.c **** }
 346              		.loc 1 37 3 discriminator 1 view .LVU107
 347 001a 4FF0E023 		mov	r3, #-536813568
 348 001e 4FF08052 		mov	r2, #268435456
 349 0022 C3F8042D 		str	r2, [r3, #3332]
  37:Core/Src/Drivers/Src/timer.c **** }
 350              		.loc 1 37 3 discriminator 1 view .LVU108
 351              		.syntax unified
 352              	@ 37 "Core/Src/Drivers/Src/timer.c" 1
 353 0026 BFF34F8F 		dsb
 354              	@ 0 "" 2
  37:Core/Src/Drivers/Src/timer.c **** }
 355              		.loc 1 37 3 discriminator 1 view .LVU109
 356              	@ 37 "Core/Src/Drivers/Src/timer.c" 1
 357 002a BFF36F8F 		isb
 358              	@ 0 "" 2
  37:Core/Src/Drivers/Src/timer.c **** }
 359              		.loc 1 37 3 discriminator 3 view .LVU110
  37:Core/Src/Drivers/Src/timer.c **** }
 360              		.loc 1 37 3 discriminator 3 view .LVU111
 361              		.thumb
 362              		.syntax unified
 363              	.L13:
  38:Core/Src/Drivers/Src/timer.c **** 
 364              		.loc 1 38 1 is_stmt 0 view .LVU112
 365 002e 02B0     		add	sp, sp, #8
 366              	.LCFI11:
 367              		.cfi_remember_state
 368              		.cfi_def_cfa_offset 8
 369              		@ sp needed
 370 0030 10BD     		pop	{r4, pc}
 371              	.LVL10:
 372              	.L19:
 373              	.LCFI12:
 374              		.cfi_restore_state
  26:Core/Src/Drivers/Src/timer.c ****     estimator->publicFromISR(estimator->encoder_sub, &encoder_topic, &xHigherPriorityTaskWoken);
 375              		.loc 1 26 5 is_stmt 1 view .LVU113
  26:Core/Src/Drivers/Src/timer.c ****     estimator->publicFromISR(estimator->encoder_sub, &encoder_topic, &xHigherPriorityTaskWoken);
 376              		.loc 1 26 50 is_stmt 0 view .LVU114
 377 0032 5B6A     		ldr	r3, [r3, #36]
  26:Core/Src/Drivers/Src/timer.c ****     estimator->publicFromISR(estimator->encoder_sub, &encoder_topic, &xHigherPriorityTaskWoken);
 378              		.loc 1 26 28 view .LVU115
ARM GAS  C:\Users\Lamp\AppData\Local\Temp\ccd3enU2.s 			page 11


 379 0034 1249     		ldr	r1, .L21+4
 380 0036 4B60     		str	r3, [r1, #4]
  27:Core/Src/Drivers/Src/timer.c ****   }
 381              		.loc 1 27 5 is_stmt 1 view .LVU116
  27:Core/Src/Drivers/Src/timer.c ****   }
 382              		.loc 1 27 14 is_stmt 0 view .LVU117
 383 0038 124B     		ldr	r3, .L21+8
 384 003a 1B68     		ldr	r3, [r3]
 385 003c D3F8E440 		ldr	r4, [r3, #228]
  27:Core/Src/Drivers/Src/timer.c ****   }
 386              		.loc 1 27 5 view .LVU118
 387 0040 01AA     		add	r2, sp, #4
 388 0042 D3F8D000 		ldr	r0, [r3, #208]
 389              	.LVL11:
  27:Core/Src/Drivers/Src/timer.c ****   }
 390              		.loc 1 27 5 view .LVU119
 391 0046 A047     		blx	r4
 392              	.LVL12:
 393 0048 E5E7     		b	.L15
 394              	.LVL13:
 395              	.L20:
  31:Core/Src/Drivers/Src/timer.c ****     if (encoder_topic.PendulumCnt >= 4000 || encoder_topic.PendulumCnt <= -4000 ) {
 396              		.loc 1 31 5 is_stmt 1 view .LVU120
  31:Core/Src/Drivers/Src/timer.c ****     if (encoder_topic.PendulumCnt >= 4000 || encoder_topic.PendulumCnt <= -4000 ) {
 397              		.loc 1 31 54 is_stmt 0 view .LVU121
 398 004a 5B6A     		ldr	r3, [r3, #36]
  31:Core/Src/Drivers/Src/timer.c ****     if (encoder_topic.PendulumCnt >= 4000 || encoder_topic.PendulumCnt <= -4000 ) {
 399              		.loc 1 31 31 view .LVU122
 400 004c 0C4A     		ldr	r2, .L21+4
 401 004e 1380     		strh	r3, [r2]	@ movhi
  32:Core/Src/Drivers/Src/timer.c ****       __HAL_TIM_SET_COUNTER(&htim3, 0);
 402              		.loc 1 32 5 is_stmt 1 view .LVU123
  32:Core/Src/Drivers/Src/timer.c ****       __HAL_TIM_SET_COUNTER(&htim3, 0);
 403              		.loc 1 32 43 is_stmt 0 view .LVU124
 404 0050 03F69F73 		addw	r3, r3, #3999
 405 0054 9BB2     		uxth	r3, r3
  32:Core/Src/Drivers/Src/timer.c ****       __HAL_TIM_SET_COUNTER(&htim3, 0);
 406              		.loc 1 32 8 view .LVU125
 407 0056 41F63E72 		movw	r2, #7998
 408 005a 9342     		cmp	r3, r2
 409 005c 03D9     		bls	.L16
  33:Core/Src/Drivers/Src/timer.c ****     }
 410              		.loc 1 33 7 is_stmt 1 view .LVU126
 411 005e 0A4B     		ldr	r3, .L21+12
 412 0060 1B68     		ldr	r3, [r3]
 413 0062 0022     		movs	r2, #0
 414 0064 5A62     		str	r2, [r3, #36]
 415              	.L16:
  35:Core/Src/Drivers/Src/timer.c ****   }
 416              		.loc 1 35 5 view .LVU127
  35:Core/Src/Drivers/Src/timer.c ****   }
 417              		.loc 1 35 14 is_stmt 0 view .LVU128
 418 0066 074B     		ldr	r3, .L21+8
 419 0068 1B68     		ldr	r3, [r3]
 420 006a D3F8E440 		ldr	r4, [r3, #228]
  35:Core/Src/Drivers/Src/timer.c ****   }
 421              		.loc 1 35 5 view .LVU129
ARM GAS  C:\Users\Lamp\AppData\Local\Temp\ccd3enU2.s 			page 12


 422 006e 01AA     		add	r2, sp, #4
 423 0070 0349     		ldr	r1, .L21+4
 424 0072 D3F8D000 		ldr	r0, [r3, #208]
 425              	.LVL14:
  35:Core/Src/Drivers/Src/timer.c ****   }
 426              		.loc 1 35 5 view .LVU130
 427 0076 A047     		blx	r4
 428              	.LVL15:
 429 0078 CDE7     		b	.L15
 430              	.L22:
 431 007a 00BF     		.align	2
 432              	.L21:
 433 007c 00040040 		.word	1073742848
 434 0080 00000000 		.word	encoder_topic
 435 0084 00000000 		.word	estimator
 436 0088 00000000 		.word	htim3
 437              		.cfi_endproc
 438              	.LFE175:
 440              		.section	.text.HAL_TIM_PeriodElapsedCallback,"ax",%progbits
 441              		.align	1
 442              		.global	HAL_TIM_PeriodElapsedCallback
 443              		.syntax unified
 444              		.thumb
 445              		.thumb_func
 447              	HAL_TIM_PeriodElapsedCallback:
 448              	.LVL16:
 449              	.LFB176:
  45:Core/Src/Drivers/Src/timer.c **** 
 450              		.loc 1 45 61 is_stmt 1 view -0
 451              		.cfi_startproc
 452              		@ args = 0, pretend = 0, frame = 8
 453              		@ frame_needed = 0, uses_anonymous_args = 0
  45:Core/Src/Drivers/Src/timer.c **** 
 454              		.loc 1 45 61 is_stmt 0 view .LVU132
 455 0000 00B5     		push	{lr}
 456              	.LCFI13:
 457              		.cfi_def_cfa_offset 4
 458              		.cfi_offset 14, -4
 459 0002 83B0     		sub	sp, sp, #12
 460              	.LCFI14:
 461              		.cfi_def_cfa_offset 16
  47:Core/Src/Drivers/Src/timer.c ****   
 462              		.loc 1 47 3 is_stmt 1 view .LVU133
  47:Core/Src/Drivers/Src/timer.c ****   
 463              		.loc 1 47 14 is_stmt 0 view .LVU134
 464 0004 0023     		movs	r3, #0
 465 0006 0193     		str	r3, [sp, #4]
  49:Core/Src/Drivers/Src/timer.c ****     static const Event time_evt = {TIMEOUT_1kHz_SIG};
 466              		.loc 1 49 3 is_stmt 1 view .LVU135
  49:Core/Src/Drivers/Src/timer.c ****     static const Event time_evt = {TIMEOUT_1kHz_SIG};
 467              		.loc 1 49 10 is_stmt 0 view .LVU136
 468 0008 0268     		ldr	r2, [r0]
  49:Core/Src/Drivers/Src/timer.c ****     static const Event time_evt = {TIMEOUT_1kHz_SIG};
 469              		.loc 1 49 5 view .LVU137
 470 000a 0D4B     		ldr	r3, .L28
 471 000c 9A42     		cmp	r2, r3
 472 000e 0ED0     		beq	.L27
ARM GAS  C:\Users\Lamp\AppData\Local\Temp\ccd3enU2.s 			page 13


 473              	.LVL17:
 474              	.L24:
  54:Core/Src/Drivers/Src/timer.c **** }
 475              		.loc 1 54 3 is_stmt 1 view .LVU138
  54:Core/Src/Drivers/Src/timer.c **** }
 476              		.loc 1 54 3 view .LVU139
 477 0010 019B     		ldr	r3, [sp, #4]
 478 0012 4BB1     		cbz	r3, .L23
  54:Core/Src/Drivers/Src/timer.c **** }
 479              		.loc 1 54 3 discriminator 1 view .LVU140
 480 0014 4FF0E023 		mov	r3, #-536813568
 481 0018 4FF08052 		mov	r2, #268435456
 482 001c C3F8042D 		str	r2, [r3, #3332]
  54:Core/Src/Drivers/Src/timer.c **** }
 483              		.loc 1 54 3 discriminator 1 view .LVU141
 484              		.syntax unified
 485              	@ 54 "Core/Src/Drivers/Src/timer.c" 1
 486 0020 BFF34F8F 		dsb
 487              	@ 0 "" 2
  54:Core/Src/Drivers/Src/timer.c **** }
 488              		.loc 1 54 3 discriminator 1 view .LVU142
 489              	@ 54 "Core/Src/Drivers/Src/timer.c" 1
 490 0024 BFF36F8F 		isb
 491              	@ 0 "" 2
  54:Core/Src/Drivers/Src/timer.c **** }
 492              		.loc 1 54 3 discriminator 3 view .LVU143
  54:Core/Src/Drivers/Src/timer.c **** }
 493              		.loc 1 54 3 discriminator 3 view .LVU144
 494              		.thumb
 495              		.syntax unified
 496              	.L23:
  55:Core/Src/Drivers/Src/timer.c **** 
 497              		.loc 1 55 1 is_stmt 0 view .LVU145
 498 0028 03B0     		add	sp, sp, #12
 499              	.LCFI15:
 500              		.cfi_remember_state
 501              		.cfi_def_cfa_offset 4
 502              		@ sp needed
 503 002a 5DF804FB 		ldr	pc, [sp], #4
 504              	.LVL18:
 505              	.L27:
 506              	.LCFI16:
 507              		.cfi_restore_state
 508              	.LBB2:
  50:Core/Src/Drivers/Src/timer.c ****     AO_Estimator->postFromISR(AO_Estimator, &time_evt, &xHigherPriorityTaskWoken);
 509              		.loc 1 50 5 is_stmt 1 view .LVU146
  51:Core/Src/Drivers/Src/timer.c ****   }
 510              		.loc 1 51 5 view .LVU147
  51:Core/Src/Drivers/Src/timer.c ****   }
 511              		.loc 1 51 17 is_stmt 0 view .LVU148
 512 002e 054B     		ldr	r3, .L28+4
 513 0030 1868     		ldr	r0, [r3]
 514              	.LVL19:
  51:Core/Src/Drivers/Src/timer.c ****   }
 515              		.loc 1 51 17 view .LVU149
 516 0032 D0F8C830 		ldr	r3, [r0, #200]
  51:Core/Src/Drivers/Src/timer.c ****   }
ARM GAS  C:\Users\Lamp\AppData\Local\Temp\ccd3enU2.s 			page 14


 517              		.loc 1 51 5 view .LVU150
 518 0036 01AA     		add	r2, sp, #4
 519 0038 0349     		ldr	r1, .L28+8
 520 003a 9847     		blx	r3
 521              	.LVL20:
 522 003c E8E7     		b	.L24
 523              	.L29:
 524 003e 00BF     		.align	2
 525              	.L28:
 526 0040 00140040 		.word	1073746944
 527 0044 00000000 		.word	AO_Estimator
 528 0048 00000000 		.word	time_evt.0
 529              	.LBE2:
 530              		.cfi_endproc
 531              	.LFE176:
 533              		.section	.text.HAL_GPIO_EXTI_Callback,"ax",%progbits
 534              		.align	1
 535              		.global	HAL_GPIO_EXTI_Callback
 536              		.syntax unified
 537              		.thumb
 538              		.thumb_func
 540              	HAL_GPIO_EXTI_Callback:
 541              	.LVL21:
 542              	.LFB177:
  58:Core/Src/Drivers/Src/timer.c ****   if (GPIO_Pin == GPIO_PIN_1) {
 543              		.loc 1 58 48 is_stmt 1 view -0
 544              		.cfi_startproc
 545              		@ args = 0, pretend = 0, frame = 0
 546              		@ frame_needed = 0, uses_anonymous_args = 0
  59:Core/Src/Drivers/Src/timer.c ****     if (encoder_topic.PendulumCnt < 0) __HAL_TIM_SET_COUNTER(&htim3, -216);
 547              		.loc 1 59 3 view .LVU152
  59:Core/Src/Drivers/Src/timer.c ****     if (encoder_topic.PendulumCnt < 0) __HAL_TIM_SET_COUNTER(&htim3, -216);
 548              		.loc 1 59 6 is_stmt 0 view .LVU153
 549 0000 0228     		cmp	r0, #2
 550 0002 00D0     		beq	.L38
 551 0004 7047     		bx	lr
 552              	.L38:
  58:Core/Src/Drivers/Src/timer.c ****   if (GPIO_Pin == GPIO_PIN_1) {
 553              		.loc 1 58 48 view .LVU154
 554 0006 08B5     		push	{r3, lr}
 555              	.LCFI17:
 556              		.cfi_def_cfa_offset 8
 557              		.cfi_offset 3, -8
 558              		.cfi_offset 14, -4
  60:Core/Src/Drivers/Src/timer.c ****     else __HAL_TIM_SET_COUNTER(&htim3, -3780);
 559              		.loc 1 60 5 is_stmt 1 view .LVU155
  60:Core/Src/Drivers/Src/timer.c ****     else __HAL_TIM_SET_COUNTER(&htim3, -3780);
 560              		.loc 1 60 22 is_stmt 0 view .LVU156
 561 0008 0B4B     		ldr	r3, .L40
 562 000a B3F90030 		ldrsh	r3, [r3]
  60:Core/Src/Drivers/Src/timer.c ****     else __HAL_TIM_SET_COUNTER(&htim3, -3780);
 563              		.loc 1 60 8 view .LVU157
 564 000e 002B     		cmp	r3, #0
 565 0010 0BDB     		blt	.L39
  61:Core/Src/Drivers/Src/timer.c **** 
 566              		.loc 1 61 10 is_stmt 1 view .LVU158
 567 0012 0A4A     		ldr	r2, .L40+4
ARM GAS  C:\Users\Lamp\AppData\Local\Temp\ccd3enU2.s 			page 15


 568 0014 1268     		ldr	r2, [r2]
 569 0016 0A49     		ldr	r1, .L40+8
 570 0018 5162     		str	r1, [r2, #36]
 571              	.L33:
  64:Core/Src/Drivers/Src/timer.c ****     HAL_GPIO_TogglePin(GPIOD, GPIO_PIN_12);
 572              		.loc 1 64 5 view .LVU159
  64:Core/Src/Drivers/Src/timer.c ****     HAL_GPIO_TogglePin(GPIOD, GPIO_PIN_12);
 573              		.loc 1 64 14 is_stmt 0 view .LVU160
 574 001a 0A4A     		ldr	r2, .L40+12
 575 001c 1360     		str	r3, [r2]
  65:Core/Src/Drivers/Src/timer.c ****   }
 576              		.loc 1 65 5 is_stmt 1 view .LVU161
 577 001e 4FF48051 		mov	r1, #4096
 578 0022 0948     		ldr	r0, .L40+16
 579              	.LVL22:
  65:Core/Src/Drivers/Src/timer.c ****   }
 580              		.loc 1 65 5 is_stmt 0 view .LVU162
 581 0024 FFF7FEFF 		bl	HAL_GPIO_TogglePin
 582              	.LVL23:
  67:Core/Src/Drivers/Src/timer.c **** 
 583              		.loc 1 67 1 view .LVU163
 584 0028 08BD     		pop	{r3, pc}
 585              	.LVL24:
 586              	.L39:
  60:Core/Src/Drivers/Src/timer.c ****     else __HAL_TIM_SET_COUNTER(&htim3, -3780);
 587              		.loc 1 60 40 is_stmt 1 discriminator 1 view .LVU164
 588 002a 044A     		ldr	r2, .L40+4
 589 002c 1268     		ldr	r2, [r2]
 590 002e 6FF0D701 		mvn	r1, #215
 591 0032 5162     		str	r1, [r2, #36]
 592 0034 F1E7     		b	.L33
 593              	.L41:
 594 0036 00BF     		.align	2
 595              	.L40:
 596 0038 00000000 		.word	encoder_topic
 597 003c 00000000 		.word	htim3
 598 0040 3CF1FFFF 		.word	-3780
 599 0044 00000000 		.word	checkcnt
 600 0048 000C0240 		.word	1073875968
 601              		.cfi_endproc
 602              	.LFE177:
 604              		.section	.text.EXTI1_IRQHandler,"ax",%progbits
 605              		.align	1
 606              		.global	EXTI1_IRQHandler
 607              		.syntax unified
 608              		.thumb
 609              		.thumb_func
 611              	EXTI1_IRQHandler:
 612              	.LFB178:
  69:Core/Src/Drivers/Src/timer.c ****   HAL_GPIO_EXTI_IRQHandler(GPIO_PIN_1); // Xử lý ngắt
 613              		.loc 1 69 29 view -0
 614              		.cfi_startproc
 615              		@ args = 0, pretend = 0, frame = 0
 616              		@ frame_needed = 0, uses_anonymous_args = 0
 617 0000 08B5     		push	{r3, lr}
 618              	.LCFI18:
 619              		.cfi_def_cfa_offset 8
ARM GAS  C:\Users\Lamp\AppData\Local\Temp\ccd3enU2.s 			page 16


 620              		.cfi_offset 3, -8
 621              		.cfi_offset 14, -4
  70:Core/Src/Drivers/Src/timer.c **** }
 622              		.loc 1 70 3 view .LVU166
 623 0002 0220     		movs	r0, #2
 624 0004 FFF7FEFF 		bl	HAL_GPIO_EXTI_IRQHandler
 625              	.LVL25:
  71:Core/Src/Drivers/Src/timer.c **** 
 626              		.loc 1 71 1 is_stmt 0 view .LVU167
 627 0008 08BD     		pop	{r3, pc}
 628              		.cfi_endproc
 629              	.LFE178:
 631              		.section	.text.Driver_Encoder_Init,"ax",%progbits
 632              		.align	1
 633              		.global	Driver_Encoder_Init
 634              		.syntax unified
 635              		.thumb
 636              		.thumb_func
 638              	Driver_Encoder_Init:
 639              	.LFB179:
  77:Core/Src/Drivers/Src/timer.c ****   MX_TIM2_Init(); // Motor encoder
 640              		.loc 1 77 1 is_stmt 1 view -0
 641              		.cfi_startproc
 642              		@ args = 0, pretend = 0, frame = 0
 643              		@ frame_needed = 0, uses_anonymous_args = 0
 644 0000 08B5     		push	{r3, lr}
 645              	.LCFI19:
 646              		.cfi_def_cfa_offset 8
 647              		.cfi_offset 3, -8
 648              		.cfi_offset 14, -4
  78:Core/Src/Drivers/Src/timer.c ****   MX_TIM3_Init(); // Pendullum encoder
 649              		.loc 1 78 3 view .LVU169
 650 0002 FFF7FEFF 		bl	MX_TIM2_Init
 651              	.LVL26:
  79:Core/Src/Drivers/Src/timer.c ****   MX_TIM7_Init(); // 1kHz timer
 652              		.loc 1 79 3 view .LVU170
 653 0006 FFF7FEFF 		bl	MX_TIM3_Init
 654              	.LVL27:
  80:Core/Src/Drivers/Src/timer.c ****   
 655              		.loc 1 80 3 view .LVU171
 656 000a FFF7FEFF 		bl	MX_TIM7_Init
 657              	.LVL28:
  83:Core/Src/Drivers/Src/timer.c ****   // HAL_TIM_Encoder_Start_IT(&htim2, TIM_CHANNEL_ALL);
 658              		.loc 1 83 3 view .LVU172
  83:Core/Src/Drivers/Src/timer.c ****   // HAL_TIM_Encoder_Start_IT(&htim2, TIM_CHANNEL_ALL);
 659              		.loc 1 83 17 is_stmt 0 view .LVU173
 660 000e 024B     		ldr	r3, .L46
 661 0010 0022     		movs	r2, #0
 662 0012 1A80     		strh	r2, [r3]	@ movhi
 663 0014 5A60     		str	r2, [r3, #4]
  86:Core/Src/Drivers/Src/timer.c **** 
 664              		.loc 1 86 1 view .LVU174
 665 0016 08BD     		pop	{r3, pc}
 666              	.L47:
 667              		.align	2
 668              	.L46:
 669 0018 00000000 		.word	encoder_topic
ARM GAS  C:\Users\Lamp\AppData\Local\Temp\ccd3enU2.s 			page 17


 670              		.cfi_endproc
 671              	.LFE179:
 673              		.section	.text.HAL_TIM_Encoder_MspInit,"ax",%progbits
 674              		.align	1
 675              		.global	HAL_TIM_Encoder_MspInit
 676              		.syntax unified
 677              		.thumb
 678              		.thumb_func
 680              	HAL_TIM_Encoder_MspInit:
 681              	.LVL29:
 682              	.LFB183:
 180:Core/Src/Drivers/Src/timer.c **** 
 181:Core/Src/Drivers/Src/timer.c **** 
 182:Core/Src/Drivers/Src/timer.c **** /**
 183:Core/Src/Drivers/Src/timer.c **** * @brief TIM_Encoder MSP Initialization
 184:Core/Src/Drivers/Src/timer.c **** * This function configures the hardware resources used in this example
 185:Core/Src/Drivers/Src/timer.c **** * @param htim_encoder: TIM_Encoder handle pointer
 186:Core/Src/Drivers/Src/timer.c **** * @retval None
 187:Core/Src/Drivers/Src/timer.c **** */
 188:Core/Src/Drivers/Src/timer.c **** void HAL_TIM_Encoder_MspInit(TIM_HandleTypeDef* htim_encoder) {
 683              		.loc 1 188 63 is_stmt 1 view -0
 684              		.cfi_startproc
 685              		@ args = 0, pretend = 0, frame = 40
 686              		@ frame_needed = 0, uses_anonymous_args = 0
 687              		.loc 1 188 63 is_stmt 0 view .LVU176
 688 0000 10B5     		push	{r4, lr}
 689              	.LCFI20:
 690              		.cfi_def_cfa_offset 8
 691              		.cfi_offset 4, -8
 692              		.cfi_offset 14, -4
 693 0002 8AB0     		sub	sp, sp, #40
 694              	.LCFI21:
 695              		.cfi_def_cfa_offset 48
 189:Core/Src/Drivers/Src/timer.c ****   GPIO_InitTypeDef GPIO_InitStruct = {0};
 696              		.loc 1 189 3 is_stmt 1 view .LVU177
 697              		.loc 1 189 20 is_stmt 0 view .LVU178
 698 0004 0023     		movs	r3, #0
 699 0006 0593     		str	r3, [sp, #20]
 700 0008 0693     		str	r3, [sp, #24]
 701 000a 0793     		str	r3, [sp, #28]
 702 000c 0893     		str	r3, [sp, #32]
 703 000e 0993     		str	r3, [sp, #36]
 190:Core/Src/Drivers/Src/timer.c **** 
 191:Core/Src/Drivers/Src/timer.c ****   if (htim_encoder->Instance == TIM2) {
 704              		.loc 1 191 3 is_stmt 1 view .LVU179
 705              		.loc 1 191 19 is_stmt 0 view .LVU180
 706 0010 0368     		ldr	r3, [r0]
 707              		.loc 1 191 6 view .LVU181
 708 0012 B3F1804F 		cmp	r3, #1073741824
 709 0016 04D0     		beq	.L52
 192:Core/Src/Drivers/Src/timer.c ****     __HAL_RCC_TIM2_CLK_ENABLE();
 193:Core/Src/Drivers/Src/timer.c **** 
 194:Core/Src/Drivers/Src/timer.c ****     __HAL_RCC_GPIOA_CLK_ENABLE();
 195:Core/Src/Drivers/Src/timer.c ****     /**TIM2 GPIO Configuration
 196:Core/Src/Drivers/Src/timer.c ****     PA0-WKUP     ------> TIM2_CH1
 197:Core/Src/Drivers/Src/timer.c ****     PA1     ------> TIM2_CH2
 198:Core/Src/Drivers/Src/timer.c ****     */
ARM GAS  C:\Users\Lamp\AppData\Local\Temp\ccd3enU2.s 			page 18


 199:Core/Src/Drivers/Src/timer.c ****     GPIO_InitStruct.Pin = GPIO_PIN_0|GPIO_PIN_1;
 200:Core/Src/Drivers/Src/timer.c ****     GPIO_InitStruct.Mode = GPIO_MODE_AF_PP;
 201:Core/Src/Drivers/Src/timer.c ****     GPIO_InitStruct.Pull = GPIO_NOPULL;
 202:Core/Src/Drivers/Src/timer.c ****     GPIO_InitStruct.Speed = GPIO_SPEED_FREQ_LOW;
 203:Core/Src/Drivers/Src/timer.c ****     GPIO_InitStruct.Alternate = GPIO_AF1_TIM2;
 204:Core/Src/Drivers/Src/timer.c ****     HAL_GPIO_Init(GPIOA, &GPIO_InitStruct);
 205:Core/Src/Drivers/Src/timer.c **** 
 206:Core/Src/Drivers/Src/timer.c ****     /* TIM2 interrupt Init */
 207:Core/Src/Drivers/Src/timer.c ****     HAL_NVIC_SetPriority(TIM2_IRQn, 7, 0);
 208:Core/Src/Drivers/Src/timer.c ****     HAL_NVIC_EnableIRQ(TIM2_IRQn);
 209:Core/Src/Drivers/Src/timer.c ****   }
 210:Core/Src/Drivers/Src/timer.c **** 
 211:Core/Src/Drivers/Src/timer.c ****   else if (htim_encoder->Instance == TIM3) {
 710              		.loc 1 211 8 is_stmt 1 view .LVU182
 711              		.loc 1 211 11 is_stmt 0 view .LVU183
 712 0018 2C4A     		ldr	r2, .L54
 713 001a 9342     		cmp	r3, r2
 714 001c 2BD0     		beq	.L53
 715              	.LVL30:
 716              	.L48:
 212:Core/Src/Drivers/Src/timer.c ****     /* Peripheral clock enable */
 213:Core/Src/Drivers/Src/timer.c ****     __HAL_RCC_TIM3_CLK_ENABLE();
 214:Core/Src/Drivers/Src/timer.c ****     __HAL_RCC_GPIOA_CLK_ENABLE();
 215:Core/Src/Drivers/Src/timer.c **** 
 216:Core/Src/Drivers/Src/timer.c ****     /**TIM3 GPIO Configuration
 217:Core/Src/Drivers/Src/timer.c ****      * PA6     ------> TIM3_CH1
 218:Core/Src/Drivers/Src/timer.c ****      * PA7     ------> TIM3_CH2
 219:Core/Src/Drivers/Src/timer.c ****      */
 220:Core/Src/Drivers/Src/timer.c ****     GPIO_InitStruct.Pin = GPIO_PIN_6|GPIO_PIN_7;
 221:Core/Src/Drivers/Src/timer.c ****     GPIO_InitStruct.Mode = GPIO_MODE_AF_PP;
 222:Core/Src/Drivers/Src/timer.c ****     GPIO_InitStruct.Pull = GPIO_PULLUP;
 223:Core/Src/Drivers/Src/timer.c ****     GPIO_InitStruct.Speed = GPIO_SPEED_FREQ_LOW;
 224:Core/Src/Drivers/Src/timer.c ****     GPIO_InitStruct.Alternate = GPIO_AF2_TIM3;
 225:Core/Src/Drivers/Src/timer.c ****     HAL_GPIO_Init(GPIOA, &GPIO_InitStruct);
 226:Core/Src/Drivers/Src/timer.c **** 
 227:Core/Src/Drivers/Src/timer.c ****     /* TIM3 interrupt Init */
 228:Core/Src/Drivers/Src/timer.c ****     HAL_NVIC_SetPriority(TIM3_IRQn, 7, 0);
 229:Core/Src/Drivers/Src/timer.c ****     HAL_NVIC_EnableIRQ(TIM3_IRQn);
 230:Core/Src/Drivers/Src/timer.c ****   }
 231:Core/Src/Drivers/Src/timer.c **** }
 717              		.loc 1 231 1 view .LVU184
 718 001e 0AB0     		add	sp, sp, #40
 719              	.LCFI22:
 720              		.cfi_remember_state
 721              		.cfi_def_cfa_offset 8
 722              		@ sp needed
 723 0020 10BD     		pop	{r4, pc}
 724              	.LVL31:
 725              	.L52:
 726              	.LCFI23:
 727              		.cfi_restore_state
 192:Core/Src/Drivers/Src/timer.c ****     __HAL_RCC_TIM2_CLK_ENABLE();
 728              		.loc 1 192 5 is_stmt 1 view .LVU185
 729              	.LBB3:
 192:Core/Src/Drivers/Src/timer.c ****     __HAL_RCC_TIM2_CLK_ENABLE();
 730              		.loc 1 192 5 view .LVU186
 731 0022 0024     		movs	r4, #0
ARM GAS  C:\Users\Lamp\AppData\Local\Temp\ccd3enU2.s 			page 19


 732 0024 0194     		str	r4, [sp, #4]
 192:Core/Src/Drivers/Src/timer.c ****     __HAL_RCC_TIM2_CLK_ENABLE();
 733              		.loc 1 192 5 view .LVU187
 734 0026 03F50E33 		add	r3, r3, #145408
 735 002a 1A6C     		ldr	r2, [r3, #64]
 736 002c 42F00102 		orr	r2, r2, #1
 737 0030 1A64     		str	r2, [r3, #64]
 192:Core/Src/Drivers/Src/timer.c ****     __HAL_RCC_TIM2_CLK_ENABLE();
 738              		.loc 1 192 5 view .LVU188
 739 0032 1A6C     		ldr	r2, [r3, #64]
 740 0034 02F00102 		and	r2, r2, #1
 741 0038 0192     		str	r2, [sp, #4]
 192:Core/Src/Drivers/Src/timer.c ****     __HAL_RCC_TIM2_CLK_ENABLE();
 742              		.loc 1 192 5 view .LVU189
 743 003a 019A     		ldr	r2, [sp, #4]
 744              	.LBE3:
 192:Core/Src/Drivers/Src/timer.c ****     __HAL_RCC_TIM2_CLK_ENABLE();
 745              		.loc 1 192 5 view .LVU190
 194:Core/Src/Drivers/Src/timer.c ****     /**TIM2 GPIO Configuration
 746              		.loc 1 194 5 view .LVU191
 747              	.LBB4:
 194:Core/Src/Drivers/Src/timer.c ****     /**TIM2 GPIO Configuration
 748              		.loc 1 194 5 view .LVU192
 749 003c 0294     		str	r4, [sp, #8]
 194:Core/Src/Drivers/Src/timer.c ****     /**TIM2 GPIO Configuration
 750              		.loc 1 194 5 view .LVU193
 751 003e 1A6B     		ldr	r2, [r3, #48]
 752 0040 42F00102 		orr	r2, r2, #1
 753 0044 1A63     		str	r2, [r3, #48]
 194:Core/Src/Drivers/Src/timer.c ****     /**TIM2 GPIO Configuration
 754              		.loc 1 194 5 view .LVU194
 755 0046 1B6B     		ldr	r3, [r3, #48]
 756 0048 03F00103 		and	r3, r3, #1
 757 004c 0293     		str	r3, [sp, #8]
 194:Core/Src/Drivers/Src/timer.c ****     /**TIM2 GPIO Configuration
 758              		.loc 1 194 5 view .LVU195
 759 004e 029B     		ldr	r3, [sp, #8]
 760              	.LBE4:
 194:Core/Src/Drivers/Src/timer.c ****     /**TIM2 GPIO Configuration
 761              		.loc 1 194 5 view .LVU196
 199:Core/Src/Drivers/Src/timer.c ****     GPIO_InitStruct.Mode = GPIO_MODE_AF_PP;
 762              		.loc 1 199 5 view .LVU197
 199:Core/Src/Drivers/Src/timer.c ****     GPIO_InitStruct.Mode = GPIO_MODE_AF_PP;
 763              		.loc 1 199 25 is_stmt 0 view .LVU198
 764 0050 0323     		movs	r3, #3
 765 0052 0593     		str	r3, [sp, #20]
 200:Core/Src/Drivers/Src/timer.c ****     GPIO_InitStruct.Pull = GPIO_NOPULL;
 766              		.loc 1 200 5 is_stmt 1 view .LVU199
 200:Core/Src/Drivers/Src/timer.c ****     GPIO_InitStruct.Pull = GPIO_NOPULL;
 767              		.loc 1 200 26 is_stmt 0 view .LVU200
 768 0054 0223     		movs	r3, #2
 769 0056 0693     		str	r3, [sp, #24]
 201:Core/Src/Drivers/Src/timer.c ****     GPIO_InitStruct.Speed = GPIO_SPEED_FREQ_LOW;
 770              		.loc 1 201 5 is_stmt 1 view .LVU201
 202:Core/Src/Drivers/Src/timer.c ****     GPIO_InitStruct.Alternate = GPIO_AF1_TIM2;
 771              		.loc 1 202 5 view .LVU202
 203:Core/Src/Drivers/Src/timer.c ****     HAL_GPIO_Init(GPIOA, &GPIO_InitStruct);
ARM GAS  C:\Users\Lamp\AppData\Local\Temp\ccd3enU2.s 			page 20


 772              		.loc 1 203 5 view .LVU203
 203:Core/Src/Drivers/Src/timer.c ****     HAL_GPIO_Init(GPIOA, &GPIO_InitStruct);
 773              		.loc 1 203 31 is_stmt 0 view .LVU204
 774 0058 0123     		movs	r3, #1
 775 005a 0993     		str	r3, [sp, #36]
 204:Core/Src/Drivers/Src/timer.c **** 
 776              		.loc 1 204 5 is_stmt 1 view .LVU205
 777 005c 05A9     		add	r1, sp, #20
 778 005e 1C48     		ldr	r0, .L54+4
 779              	.LVL32:
 204:Core/Src/Drivers/Src/timer.c **** 
 780              		.loc 1 204 5 is_stmt 0 view .LVU206
 781 0060 FFF7FEFF 		bl	HAL_GPIO_Init
 782              	.LVL33:
 207:Core/Src/Drivers/Src/timer.c ****     HAL_NVIC_EnableIRQ(TIM2_IRQn);
 783              		.loc 1 207 5 is_stmt 1 view .LVU207
 784 0064 2246     		mov	r2, r4
 785 0066 0721     		movs	r1, #7
 786 0068 1C20     		movs	r0, #28
 787 006a FFF7FEFF 		bl	HAL_NVIC_SetPriority
 788              	.LVL34:
 208:Core/Src/Drivers/Src/timer.c ****   }
 789              		.loc 1 208 5 view .LVU208
 790 006e 1C20     		movs	r0, #28
 791 0070 FFF7FEFF 		bl	HAL_NVIC_EnableIRQ
 792              	.LVL35:
 793 0074 D3E7     		b	.L48
 794              	.LVL36:
 795              	.L53:
 213:Core/Src/Drivers/Src/timer.c ****     __HAL_RCC_GPIOA_CLK_ENABLE();
 796              		.loc 1 213 5 view .LVU209
 797              	.LBB5:
 213:Core/Src/Drivers/Src/timer.c ****     __HAL_RCC_GPIOA_CLK_ENABLE();
 798              		.loc 1 213 5 view .LVU210
 799 0076 0024     		movs	r4, #0
 800 0078 0394     		str	r4, [sp, #12]
 213:Core/Src/Drivers/Src/timer.c ****     __HAL_RCC_GPIOA_CLK_ENABLE();
 801              		.loc 1 213 5 view .LVU211
 802 007a 164B     		ldr	r3, .L54+8
 803 007c 1A6C     		ldr	r2, [r3, #64]
 804 007e 42F00202 		orr	r2, r2, #2
 805 0082 1A64     		str	r2, [r3, #64]
 213:Core/Src/Drivers/Src/timer.c ****     __HAL_RCC_GPIOA_CLK_ENABLE();
 806              		.loc 1 213 5 view .LVU212
 807 0084 1A6C     		ldr	r2, [r3, #64]
 808 0086 02F00202 		and	r2, r2, #2
 809 008a 0392     		str	r2, [sp, #12]
 213:Core/Src/Drivers/Src/timer.c ****     __HAL_RCC_GPIOA_CLK_ENABLE();
 810              		.loc 1 213 5 view .LVU213
 811 008c 039A     		ldr	r2, [sp, #12]
 812              	.LBE5:
 213:Core/Src/Drivers/Src/timer.c ****     __HAL_RCC_GPIOA_CLK_ENABLE();
 813              		.loc 1 213 5 view .LVU214
 214:Core/Src/Drivers/Src/timer.c **** 
 814              		.loc 1 214 5 view .LVU215
 815              	.LBB6:
 214:Core/Src/Drivers/Src/timer.c **** 
ARM GAS  C:\Users\Lamp\AppData\Local\Temp\ccd3enU2.s 			page 21


 816              		.loc 1 214 5 view .LVU216
 817 008e 0494     		str	r4, [sp, #16]
 214:Core/Src/Drivers/Src/timer.c **** 
 818              		.loc 1 214 5 view .LVU217
 819 0090 1A6B     		ldr	r2, [r3, #48]
 820 0092 42F00102 		orr	r2, r2, #1
 821 0096 1A63     		str	r2, [r3, #48]
 214:Core/Src/Drivers/Src/timer.c **** 
 822              		.loc 1 214 5 view .LVU218
 823 0098 1B6B     		ldr	r3, [r3, #48]
 824 009a 03F00103 		and	r3, r3, #1
 825 009e 0493     		str	r3, [sp, #16]
 214:Core/Src/Drivers/Src/timer.c **** 
 826              		.loc 1 214 5 view .LVU219
 827 00a0 049B     		ldr	r3, [sp, #16]
 828              	.LBE6:
 214:Core/Src/Drivers/Src/timer.c **** 
 829              		.loc 1 214 5 view .LVU220
 220:Core/Src/Drivers/Src/timer.c ****     GPIO_InitStruct.Mode = GPIO_MODE_AF_PP;
 830              		.loc 1 220 5 view .LVU221
 220:Core/Src/Drivers/Src/timer.c ****     GPIO_InitStruct.Mode = GPIO_MODE_AF_PP;
 831              		.loc 1 220 25 is_stmt 0 view .LVU222
 832 00a2 C023     		movs	r3, #192
 833 00a4 0593     		str	r3, [sp, #20]
 221:Core/Src/Drivers/Src/timer.c ****     GPIO_InitStruct.Pull = GPIO_PULLUP;
 834              		.loc 1 221 5 is_stmt 1 view .LVU223
 221:Core/Src/Drivers/Src/timer.c ****     GPIO_InitStruct.Pull = GPIO_PULLUP;
 835              		.loc 1 221 26 is_stmt 0 view .LVU224
 836 00a6 0223     		movs	r3, #2
 837 00a8 0693     		str	r3, [sp, #24]
 222:Core/Src/Drivers/Src/timer.c ****     GPIO_InitStruct.Speed = GPIO_SPEED_FREQ_LOW;
 838              		.loc 1 222 5 is_stmt 1 view .LVU225
 222:Core/Src/Drivers/Src/timer.c ****     GPIO_InitStruct.Speed = GPIO_SPEED_FREQ_LOW;
 839              		.loc 1 222 26 is_stmt 0 view .LVU226
 840 00aa 0122     		movs	r2, #1
 841 00ac 0792     		str	r2, [sp, #28]
 223:Core/Src/Drivers/Src/timer.c ****     GPIO_InitStruct.Alternate = GPIO_AF2_TIM3;
 842              		.loc 1 223 5 is_stmt 1 view .LVU227
 224:Core/Src/Drivers/Src/timer.c ****     HAL_GPIO_Init(GPIOA, &GPIO_InitStruct);
 843              		.loc 1 224 5 view .LVU228
 224:Core/Src/Drivers/Src/timer.c ****     HAL_GPIO_Init(GPIOA, &GPIO_InitStruct);
 844              		.loc 1 224 31 is_stmt 0 view .LVU229
 845 00ae 0993     		str	r3, [sp, #36]
 225:Core/Src/Drivers/Src/timer.c **** 
 846              		.loc 1 225 5 is_stmt 1 view .LVU230
 847 00b0 05A9     		add	r1, sp, #20
 848 00b2 0748     		ldr	r0, .L54+4
 849              	.LVL37:
 225:Core/Src/Drivers/Src/timer.c **** 
 850              		.loc 1 225 5 is_stmt 0 view .LVU231
 851 00b4 FFF7FEFF 		bl	HAL_GPIO_Init
 852              	.LVL38:
 228:Core/Src/Drivers/Src/timer.c ****     HAL_NVIC_EnableIRQ(TIM3_IRQn);
 853              		.loc 1 228 5 is_stmt 1 view .LVU232
 854 00b8 2246     		mov	r2, r4
 855 00ba 0721     		movs	r1, #7
 856 00bc 1D20     		movs	r0, #29
ARM GAS  C:\Users\Lamp\AppData\Local\Temp\ccd3enU2.s 			page 22


 857 00be FFF7FEFF 		bl	HAL_NVIC_SetPriority
 858              	.LVL39:
 229:Core/Src/Drivers/Src/timer.c ****   }
 859              		.loc 1 229 5 view .LVU233
 860 00c2 1D20     		movs	r0, #29
 861 00c4 FFF7FEFF 		bl	HAL_NVIC_EnableIRQ
 862              	.LVL40:
 863              		.loc 1 231 1 is_stmt 0 view .LVU234
 864 00c8 A9E7     		b	.L48
 865              	.L55:
 866 00ca 00BF     		.align	2
 867              	.L54:
 868 00cc 00040040 		.word	1073742848
 869 00d0 00000240 		.word	1073872896
 870 00d4 00380240 		.word	1073887232
 871              		.cfi_endproc
 872              	.LFE183:
 874              		.section	.text.HAL_TIM_Base_MspInit,"ax",%progbits
 875              		.align	1
 876              		.global	HAL_TIM_Base_MspInit
 877              		.syntax unified
 878              		.thumb
 879              		.thumb_func
 881              	HAL_TIM_Base_MspInit:
 882              	.LVL41:
 883              	.LFB184:
 232:Core/Src/Drivers/Src/timer.c **** 
 233:Core/Src/Drivers/Src/timer.c **** /**
 234:Core/Src/Drivers/Src/timer.c **** * @brief TIM_Base MSP Initialization
 235:Core/Src/Drivers/Src/timer.c **** * This function configures the hardware resources used in this example
 236:Core/Src/Drivers/Src/timer.c **** * @param htim_base: TIM_Base handle pointer
 237:Core/Src/Drivers/Src/timer.c **** * @retval None
 238:Core/Src/Drivers/Src/timer.c **** */
 239:Core/Src/Drivers/Src/timer.c **** void HAL_TIM_Base_MspInit(TIM_HandleTypeDef* htim_base)
 240:Core/Src/Drivers/Src/timer.c **** {
 884              		.loc 1 240 1 is_stmt 1 view -0
 885              		.cfi_startproc
 886              		@ args = 0, pretend = 0, frame = 8
 887              		@ frame_needed = 0, uses_anonymous_args = 0
 241:Core/Src/Drivers/Src/timer.c ****   if(htim_base->Instance==TIM7)
 888              		.loc 1 241 3 view .LVU236
 889              		.loc 1 241 15 is_stmt 0 view .LVU237
 890 0000 0268     		ldr	r2, [r0]
 891              		.loc 1 241 5 view .LVU238
 892 0002 0E4B     		ldr	r3, .L63
 893 0004 9A42     		cmp	r2, r3
 894 0006 00D0     		beq	.L62
 895 0008 7047     		bx	lr
 896              	.L62:
 240:Core/Src/Drivers/Src/timer.c ****   if(htim_base->Instance==TIM7)
 897              		.loc 1 240 1 view .LVU239
 898 000a 00B5     		push	{lr}
 899              	.LCFI24:
 900              		.cfi_def_cfa_offset 4
 901              		.cfi_offset 14, -4
 902 000c 83B0     		sub	sp, sp, #12
 903              	.LCFI25:
ARM GAS  C:\Users\Lamp\AppData\Local\Temp\ccd3enU2.s 			page 23


 904              		.cfi_def_cfa_offset 16
 242:Core/Src/Drivers/Src/timer.c ****   {
 243:Core/Src/Drivers/Src/timer.c ****     /* Peripheral clock enable */
 244:Core/Src/Drivers/Src/timer.c ****     __HAL_RCC_TIM7_CLK_ENABLE();
 905              		.loc 1 244 5 is_stmt 1 view .LVU240
 906              	.LBB7:
 907              		.loc 1 244 5 view .LVU241
 908 000e 0022     		movs	r2, #0
 909 0010 0192     		str	r2, [sp, #4]
 910              		.loc 1 244 5 view .LVU242
 911 0012 03F50933 		add	r3, r3, #140288
 912 0016 196C     		ldr	r1, [r3, #64]
 913 0018 41F02001 		orr	r1, r1, #32
 914 001c 1964     		str	r1, [r3, #64]
 915              		.loc 1 244 5 view .LVU243
 916 001e 1B6C     		ldr	r3, [r3, #64]
 917 0020 03F02003 		and	r3, r3, #32
 918 0024 0193     		str	r3, [sp, #4]
 919              		.loc 1 244 5 view .LVU244
 920 0026 019B     		ldr	r3, [sp, #4]
 921              	.LBE7:
 922              		.loc 1 244 5 view .LVU245
 245:Core/Src/Drivers/Src/timer.c **** 
 246:Core/Src/Drivers/Src/timer.c ****     /* TIM7 interrupt Init */
 247:Core/Src/Drivers/Src/timer.c ****     HAL_NVIC_SetPriority(TIM7_IRQn, 8, 0);
 923              		.loc 1 247 5 view .LVU246
 924 0028 0821     		movs	r1, #8
 925 002a 3720     		movs	r0, #55
 926              	.LVL42:
 927              		.loc 1 247 5 is_stmt 0 view .LVU247
 928 002c FFF7FEFF 		bl	HAL_NVIC_SetPriority
 929              	.LVL43:
 248:Core/Src/Drivers/Src/timer.c ****     HAL_NVIC_EnableIRQ(TIM7_IRQn);
 930              		.loc 1 248 5 is_stmt 1 view .LVU248
 931 0030 3720     		movs	r0, #55
 932 0032 FFF7FEFF 		bl	HAL_NVIC_EnableIRQ
 933              	.LVL44:
 249:Core/Src/Drivers/Src/timer.c ****   }
 250:Core/Src/Drivers/Src/timer.c **** }
 934              		.loc 1 250 1 is_stmt 0 view .LVU249
 935 0036 03B0     		add	sp, sp, #12
 936              	.LCFI26:
 937              		.cfi_def_cfa_offset 4
 938              		@ sp needed
 939 0038 5DF804FB 		ldr	pc, [sp], #4
 940              	.L64:
 941              		.align	2
 942              	.L63:
 943 003c 00140040 		.word	1073746944
 944              		.cfi_endproc
 945              	.LFE184:
 947              		.section	.text.TIM2_IRQHandler,"ax",%progbits
 948              		.align	1
 949              		.global	TIM2_IRQHandler
 950              		.syntax unified
 951              		.thumb
 952              		.thumb_func
ARM GAS  C:\Users\Lamp\AppData\Local\Temp\ccd3enU2.s 			page 24


 954              	TIM2_IRQHandler:
 955              	.LFB185:
 251:Core/Src/Drivers/Src/timer.c **** 
 252:Core/Src/Drivers/Src/timer.c **** /**
 253:Core/Src/Drivers/Src/timer.c ****   * @brief This function handles TIM2 global interrupt.
 254:Core/Src/Drivers/Src/timer.c ****   */
 255:Core/Src/Drivers/Src/timer.c **** void TIM2_IRQHandler(void)
 256:Core/Src/Drivers/Src/timer.c **** {
 956              		.loc 1 256 1 is_stmt 1 view -0
 957              		.cfi_startproc
 958              		@ args = 0, pretend = 0, frame = 0
 959              		@ frame_needed = 0, uses_anonymous_args = 0
 960 0000 08B5     		push	{r3, lr}
 961              	.LCFI27:
 962              		.cfi_def_cfa_offset 8
 963              		.cfi_offset 3, -8
 964              		.cfi_offset 14, -4
 257:Core/Src/Drivers/Src/timer.c ****   HAL_TIM_IRQHandler(&htim2);
 965              		.loc 1 257 3 view .LVU251
 966 0002 0248     		ldr	r0, .L67
 967 0004 FFF7FEFF 		bl	HAL_TIM_IRQHandler
 968              	.LVL45:
 258:Core/Src/Drivers/Src/timer.c **** }
 969              		.loc 1 258 1 is_stmt 0 view .LVU252
 970 0008 08BD     		pop	{r3, pc}
 971              	.L68:
 972 000a 00BF     		.align	2
 973              	.L67:
 974 000c 00000000 		.word	htim2
 975              		.cfi_endproc
 976              	.LFE185:
 978              		.section	.text.TIM3_IRQHandler,"ax",%progbits
 979              		.align	1
 980              		.global	TIM3_IRQHandler
 981              		.syntax unified
 982              		.thumb
 983              		.thumb_func
 985              	TIM3_IRQHandler:
 986              	.LFB186:
 259:Core/Src/Drivers/Src/timer.c **** 
 260:Core/Src/Drivers/Src/timer.c **** /**
 261:Core/Src/Drivers/Src/timer.c ****   * @brief This function handles TIM3 global interrupt.
 262:Core/Src/Drivers/Src/timer.c ****   */
 263:Core/Src/Drivers/Src/timer.c **** void TIM3_IRQHandler(void)
 264:Core/Src/Drivers/Src/timer.c **** {
 987              		.loc 1 264 1 is_stmt 1 view -0
 988              		.cfi_startproc
 989              		@ args = 0, pretend = 0, frame = 0
 990              		@ frame_needed = 0, uses_anonymous_args = 0
 991 0000 08B5     		push	{r3, lr}
 992              	.LCFI28:
 993              		.cfi_def_cfa_offset 8
 994              		.cfi_offset 3, -8
 995              		.cfi_offset 14, -4
 265:Core/Src/Drivers/Src/timer.c ****   HAL_TIM_IRQHandler(&htim3);
 996              		.loc 1 265 3 view .LVU254
 997 0002 0248     		ldr	r0, .L71
ARM GAS  C:\Users\Lamp\AppData\Local\Temp\ccd3enU2.s 			page 25


 998 0004 FFF7FEFF 		bl	HAL_TIM_IRQHandler
 999              	.LVL46:
 266:Core/Src/Drivers/Src/timer.c **** }
 1000              		.loc 1 266 1 is_stmt 0 view .LVU255
 1001 0008 08BD     		pop	{r3, pc}
 1002              	.L72:
 1003 000a 00BF     		.align	2
 1004              	.L71:
 1005 000c 00000000 		.word	htim3
 1006              		.cfi_endproc
 1007              	.LFE186:
 1009              		.section	.text.TIM7_IRQHandler,"ax",%progbits
 1010              		.align	1
 1011              		.global	TIM7_IRQHandler
 1012              		.syntax unified
 1013              		.thumb
 1014              		.thumb_func
 1016              	TIM7_IRQHandler:
 1017              	.LFB187:
 267:Core/Src/Drivers/Src/timer.c **** 
 268:Core/Src/Drivers/Src/timer.c **** /**
 269:Core/Src/Drivers/Src/timer.c ****   * @brief This function handles TIM7 global interrupt.
 270:Core/Src/Drivers/Src/timer.c ****   */
 271:Core/Src/Drivers/Src/timer.c **** void TIM7_IRQHandler(void)
 272:Core/Src/Drivers/Src/timer.c **** {
 1018              		.loc 1 272 1 is_stmt 1 view -0
 1019              		.cfi_startproc
 1020              		@ args = 0, pretend = 0, frame = 0
 1021              		@ frame_needed = 0, uses_anonymous_args = 0
 1022 0000 08B5     		push	{r3, lr}
 1023              	.LCFI29:
 1024              		.cfi_def_cfa_offset 8
 1025              		.cfi_offset 3, -8
 1026              		.cfi_offset 14, -4
 273:Core/Src/Drivers/Src/timer.c ****   HAL_TIM_IRQHandler(&htim7);
 1027              		.loc 1 273 3 view .LVU257
 1028 0002 0248     		ldr	r0, .L75
 1029 0004 FFF7FEFF 		bl	HAL_TIM_IRQHandler
 1030              	.LVL47:
 274:Core/Src/Drivers/Src/timer.c **** }
 1031              		.loc 1 274 1 is_stmt 0 view .LVU258
 1032 0008 08BD     		pop	{r3, pc}
 1033              	.L76:
 1034 000a 00BF     		.align	2
 1035              	.L75:
 1036 000c 00000000 		.word	htim7
 1037              		.cfi_endproc
 1038              	.LFE187:
 1040              		.section	.rodata.time_evt.0,"a"
 1041              		.align	2
 1044              	time_evt.0:
 1045 0000 0300     		.short	3
 1046              		.global	checkcnt
 1047              		.section	.bss.checkcnt,"aw",%nobits
 1048              		.align	2
 1051              	checkcnt:
 1052 0000 00000000 		.space	4
ARM GAS  C:\Users\Lamp\AppData\Local\Temp\ccd3enU2.s 			page 26


 1053              		.global	Pre_PendulumCnt
 1054              		.section	.bss.Pre_PendulumCnt,"aw",%nobits
 1055              		.align	2
 1058              	Pre_PendulumCnt:
 1059 0000 00000000 		.space	4
 1060              		.global	encoder_topic
 1061              		.section	.bss.encoder_topic,"aw",%nobits
 1062              		.align	2
 1065              	encoder_topic:
 1066 0000 00000000 		.space	8
 1066      00000000 
 1067              		.global	htim7
 1068              		.section	.bss.htim7,"aw",%nobits
 1069              		.align	2
 1072              	htim7:
 1073 0000 00000000 		.space	72
 1073      00000000 
 1073      00000000 
 1073      00000000 
 1073      00000000 
 1074              		.global	htim3
 1075              		.section	.bss.htim3,"aw",%nobits
 1076              		.align	2
 1079              	htim3:
 1080 0000 00000000 		.space	72
 1080      00000000 
 1080      00000000 
 1080      00000000 
 1080      00000000 
 1081              		.global	htim2
 1082              		.section	.bss.htim2,"aw",%nobits
 1083              		.align	2
 1086              	htim2:
 1087 0000 00000000 		.space	72
 1087      00000000 
 1087      00000000 
 1087      00000000 
 1087      00000000 
 1088              		.text
 1089              	.Letext0:
 1090              		.file 2 "Drivers/CMSIS/Device/ST/STM32F4xx/Include/stm32f407xx.h"
 1091              		.file 3 "C:/ARM GNU Toolchain/arm-none-eabi/include/machine/_default_types.h"
 1092              		.file 4 "C:/ARM GNU Toolchain/arm-none-eabi/include/sys/_stdint.h"
 1093              		.file 5 "Drivers/STM32F4xx_HAL_Driver/Inc/stm32f4xx_hal_def.h"
 1094              		.file 6 "Drivers/STM32F4xx_HAL_Driver/Inc/stm32f4xx_hal_gpio.h"
 1095              		.file 7 "Drivers/STM32F4xx_HAL_Driver/Inc/stm32f4xx_hal_dma.h"
 1096              		.file 8 "Drivers/STM32F4xx_HAL_Driver/Inc/stm32f4xx_hal_tim.h"
 1097              		.file 9 "ThirdParty/FreeRTOS/portable/GCC/ARM_CM4F/portmacro.h"
 1098              		.file 10 "ThirdParty/FreeRTOS/include/FreeRTOS.h"
 1099              		.file 11 "ThirdParty/FreeRTOS/include/task.h"
 1100              		.file 12 "ThirdParty/FreeRTOS/include/queue.h"
 1101              		.file 13 "Drivers/CMSIS/DSP/Include/arm_math.h"
 1102              		.file 14 "Core/Src/Middleware/Topic.h"
 1103              		.file 15 "Core/Src/Middleware/Active_Object.h"
 1104              		.file 16 "Core/Src/Middleware/dsp.h"
 1105              		.file 17 "Core/Src/Application/Inc/Estimator.h"
 1106              		.file 18 "Drivers/STM32F4xx_HAL_Driver/Inc/stm32f4xx_hal_cortex.h"
ARM GAS  C:\Users\Lamp\AppData\Local\Temp\ccd3enU2.s 			page 27


 1107              		.file 19 "Drivers/STM32F4xx_HAL_Driver/Inc/stm32f4xx_hal_tim_ex.h"
 1108              		.file 20 "<built-in>"
ARM GAS  C:\Users\Lamp\AppData\Local\Temp\ccd3enU2.s 			page 28

