ARM GAS  C:\Users\Lamp\AppData\Local\Temp\cc3ijpHc.s 			page 1


   1              		.cpu cortex-m4
   2              		.arch armv7e-m
   3              		.fpu fpv4-sp-d16
   4              		.eabi_attribute 27, 1
   5              		.eabi_attribute 28, 1
   6              		.eabi_attribute 20, 1
   7              		.eabi_attribute 21, 1
   8              		.eabi_attribute 23, 3
   9              		.eabi_attribute 24, 1
  10              		.eabi_attribute 25, 1
  11              		.eabi_attribute 26, 1
  12              		.eabi_attribute 30, 1
  13              		.eabi_attribute 34, 1
  14              		.eabi_attribute 18, 4
  15              		.file	"usart.c"
  16              		.text
  17              	.Ltext0:
  18              		.cfi_sections	.debug_frame
  19              		.file 1 "Core/Src/Drivers/Src/usart.c"
  20              		.section	.text.UART_Init,"ax",%progbits
  21              		.align	1
  22              		.syntax unified
  23              		.thumb
  24              		.thumb_func
  26              	UART_Init:
  27              	.LVL0:
  28              	.LFB136:
   1:Core/Src/Drivers/Src/usart.c **** #include "usart.h"
   2:Core/Src/Drivers/Src/usart.c **** 
   3:Core/Src/Drivers/Src/usart.c **** UART_HandleTypeDef huart2;
   4:Core/Src/Drivers/Src/usart.c **** UART_HandleTypeDef huart3;
   5:Core/Src/Drivers/Src/usart.c **** 
   6:Core/Src/Drivers/Src/usart.c **** static void UART_Init(UART_HandleTypeDef* huart);
   7:Core/Src/Drivers/Src/usart.c **** 
   8:Core/Src/Drivers/Src/usart.c **** /**
   9:Core/Src/Drivers/Src/usart.c ****   * @brief This function initialize USART1.
  10:Core/Src/Drivers/Src/usart.c ****   */
  11:Core/Src/Drivers/Src/usart.c **** void Driver_USART_Init()
  12:Core/Src/Drivers/Src/usart.c **** {
  13:Core/Src/Drivers/Src/usart.c ****     huart2.Instance = USART2;
  14:Core/Src/Drivers/Src/usart.c ****     huart3.Instance = USART3;
  15:Core/Src/Drivers/Src/usart.c ****     UART_Init(&huart2);
  16:Core/Src/Drivers/Src/usart.c ****     UART_Init(&huart3);
  17:Core/Src/Drivers/Src/usart.c **** }
  18:Core/Src/Drivers/Src/usart.c **** 
  19:Core/Src/Drivers/Src/usart.c **** void HAL_UART_MspInit(UART_HandleTypeDef* huart)
  20:Core/Src/Drivers/Src/usart.c **** {
  21:Core/Src/Drivers/Src/usart.c ****     GPIO_InitTypeDef GPIO_InitStruct = {0};
  22:Core/Src/Drivers/Src/usart.c ****     if(huart->Instance==USART2)
  23:Core/Src/Drivers/Src/usart.c ****     {
  24:Core/Src/Drivers/Src/usart.c ****         /* Peripheral clock enable */
  25:Core/Src/Drivers/Src/usart.c ****         __HAL_RCC_USART2_CLK_ENABLE();
  26:Core/Src/Drivers/Src/usart.c ****         __HAL_RCC_GPIOA_CLK_ENABLE();
  27:Core/Src/Drivers/Src/usart.c ****         
  28:Core/Src/Drivers/Src/usart.c ****         /** USART2 GPIO Configuration
  29:Core/Src/Drivers/Src/usart.c ****          * PA2     ------> USART2_TX
  30:Core/Src/Drivers/Src/usart.c ****          * PA3     ------> USART2_RX
ARM GAS  C:\Users\Lamp\AppData\Local\Temp\cc3ijpHc.s 			page 2


  31:Core/Src/Drivers/Src/usart.c ****          */
  32:Core/Src/Drivers/Src/usart.c ****         GPIO_InitStruct.Pin = GPIO_PIN_2|GPIO_PIN_3;
  33:Core/Src/Drivers/Src/usart.c ****         GPIO_InitStruct.Mode = GPIO_MODE_AF_PP;
  34:Core/Src/Drivers/Src/usart.c ****         GPIO_InitStruct.Pull = GPIO_NOPULL;
  35:Core/Src/Drivers/Src/usart.c ****         GPIO_InitStruct.Speed = GPIO_SPEED_FREQ_VERY_HIGH;
  36:Core/Src/Drivers/Src/usart.c ****         GPIO_InitStruct.Alternate = GPIO_AF7_USART2;
  37:Core/Src/Drivers/Src/usart.c ****         HAL_GPIO_Init(GPIOA, &GPIO_InitStruct);
  38:Core/Src/Drivers/Src/usart.c **** 
  39:Core/Src/Drivers/Src/usart.c ****         /* USART1 interrupt Init */
  40:Core/Src/Drivers/Src/usart.c ****         HAL_NVIC_SetPriority(USART2_IRQn, 9, 0);
  41:Core/Src/Drivers/Src/usart.c ****         HAL_NVIC_EnableIRQ(USART2_IRQn);
  42:Core/Src/Drivers/Src/usart.c ****     }
  43:Core/Src/Drivers/Src/usart.c ****     else if(huart->Instance==USART3)
  44:Core/Src/Drivers/Src/usart.c ****     {
  45:Core/Src/Drivers/Src/usart.c ****         /* Peripheral clock enable */
  46:Core/Src/Drivers/Src/usart.c ****         __HAL_RCC_USART3_CLK_ENABLE();
  47:Core/Src/Drivers/Src/usart.c ****         __HAL_RCC_GPIOB_CLK_ENABLE();
  48:Core/Src/Drivers/Src/usart.c **** 
  49:Core/Src/Drivers/Src/usart.c ****         /** USART3 GPIO Configuration
  50:Core/Src/Drivers/Src/usart.c ****          * PB10     ------> USART3_TX
  51:Core/Src/Drivers/Src/usart.c ****          * PB11     ------> USART3_RX
  52:Core/Src/Drivers/Src/usart.c ****          */
  53:Core/Src/Drivers/Src/usart.c ****         GPIO_InitStruct.Pin = GPIO_PIN_10|GPIO_PIN_11;
  54:Core/Src/Drivers/Src/usart.c ****         GPIO_InitStruct.Mode = GPIO_MODE_AF_PP;
  55:Core/Src/Drivers/Src/usart.c ****         GPIO_InitStruct.Pull = GPIO_NOPULL;
  56:Core/Src/Drivers/Src/usart.c ****         GPIO_InitStruct.Speed = GPIO_SPEED_FREQ_VERY_HIGH;
  57:Core/Src/Drivers/Src/usart.c ****         GPIO_InitStruct.Alternate = GPIO_AF7_USART3;
  58:Core/Src/Drivers/Src/usart.c ****         HAL_GPIO_Init(GPIOB, &GPIO_InitStruct);
  59:Core/Src/Drivers/Src/usart.c **** 
  60:Core/Src/Drivers/Src/usart.c ****         /* USART3 interrupt Init */
  61:Core/Src/Drivers/Src/usart.c ****         HAL_NVIC_SetPriority(USART3_IRQn, 10, 0);
  62:Core/Src/Drivers/Src/usart.c ****         HAL_NVIC_EnableIRQ(USART3_IRQn);
  63:Core/Src/Drivers/Src/usart.c ****     }
  64:Core/Src/Drivers/Src/usart.c **** }
  65:Core/Src/Drivers/Src/usart.c **** 
  66:Core/Src/Drivers/Src/usart.c **** static void UART_Init(UART_HandleTypeDef* huart)
  67:Core/Src/Drivers/Src/usart.c **** {
  29              		.loc 1 67 1 view -0
  30              		.cfi_startproc
  31              		@ args = 0, pretend = 0, frame = 0
  32              		@ frame_needed = 0, uses_anonymous_args = 0
  33              		.loc 1 67 1 is_stmt 0 view .LVU1
  34 0000 08B5     		push	{r3, lr}
  35              	.LCFI0:
  36              		.cfi_def_cfa_offset 8
  37              		.cfi_offset 3, -8
  38              		.cfi_offset 14, -4
  68:Core/Src/Drivers/Src/usart.c **** 
  69:Core/Src/Drivers/Src/usart.c ****     /**
  70:Core/Src/Drivers/Src/usart.c ****      * Feature: Send signal control to Driver CC-SMART MSD_E20
  71:Core/Src/Drivers/Src/usart.c ****      */
  72:Core/Src/Drivers/Src/usart.c ****     if(huart->Instance == USART2)
  39              		.loc 1 72 5 is_stmt 1 view .LVU2
  40              		.loc 1 72 13 is_stmt 0 view .LVU3
  41 0002 0368     		ldr	r3, [r0]
  42              		.loc 1 72 7 view .LVU4
  43 0004 104A     		ldr	r2, .L7
ARM GAS  C:\Users\Lamp\AppData\Local\Temp\cc3ijpHc.s 			page 3


  44 0006 9342     		cmp	r3, r2
  45 0008 03D0     		beq	.L5
  73:Core/Src/Drivers/Src/usart.c ****     {
  74:Core/Src/Drivers/Src/usart.c ****         huart->Init.BaudRate = 115200;
  75:Core/Src/Drivers/Src/usart.c ****         huart->Init.WordLength = UART_WORDLENGTH_8B;
  76:Core/Src/Drivers/Src/usart.c ****         huart->Init.StopBits = UART_STOPBITS_1;
  77:Core/Src/Drivers/Src/usart.c ****         huart->Init.Parity = UART_PARITY_NONE;
  78:Core/Src/Drivers/Src/usart.c ****         huart->Init.Mode = UART_MODE_TX_RX;
  79:Core/Src/Drivers/Src/usart.c ****         huart->Init.HwFlowCtl = UART_HWCONTROL_NONE;
  80:Core/Src/Drivers/Src/usart.c ****         huart->Init.OverSampling = UART_OVERSAMPLING_16;
  81:Core/Src/Drivers/Src/usart.c ****         HAL_UART_Init(huart);
  82:Core/Src/Drivers/Src/usart.c ****     }
  83:Core/Src/Drivers/Src/usart.c **** 
  84:Core/Src/Drivers/Src/usart.c ****     /**
  85:Core/Src/Drivers/Src/usart.c ****      * Feature: Communicate with Matlab
  86:Core/Src/Drivers/Src/usart.c ****      */
  87:Core/Src/Drivers/Src/usart.c ****     else if(huart->Instance == USART3)
  46              		.loc 1 87 10 is_stmt 1 view .LVU5
  47              		.loc 1 87 12 is_stmt 0 view .LVU6
  48 000a 104A     		ldr	r2, .L7+4
  49 000c 9342     		cmp	r3, r2
  50 000e 0ED0     		beq	.L6
  51              	.LVL1:
  52              	.L1:
  88:Core/Src/Drivers/Src/usart.c ****     {
  89:Core/Src/Drivers/Src/usart.c ****         huart->Init.BaudRate = 576000;
  90:Core/Src/Drivers/Src/usart.c ****         huart->Init.WordLength = UART_WORDLENGTH_8B;
  91:Core/Src/Drivers/Src/usart.c ****         huart->Init.StopBits = UART_STOPBITS_1;
  92:Core/Src/Drivers/Src/usart.c ****         huart->Init.Parity = UART_PARITY_NONE;
  93:Core/Src/Drivers/Src/usart.c ****         huart->Init.Mode = UART_MODE_TX_RX;
  94:Core/Src/Drivers/Src/usart.c ****         huart->Init.HwFlowCtl = UART_HWCONTROL_NONE;
  95:Core/Src/Drivers/Src/usart.c ****         huart->Init.OverSampling = UART_OVERSAMPLING_16;
  96:Core/Src/Drivers/Src/usart.c ****         HAL_UART_Init(huart);
  97:Core/Src/Drivers/Src/usart.c ****     }
  98:Core/Src/Drivers/Src/usart.c **** }
  53              		.loc 1 98 1 view .LVU7
  54 0010 08BD     		pop	{r3, pc}
  55              	.LVL2:
  56              	.L5:
  74:Core/Src/Drivers/Src/usart.c ****         huart->Init.WordLength = UART_WORDLENGTH_8B;
  57              		.loc 1 74 9 is_stmt 1 view .LVU8
  74:Core/Src/Drivers/Src/usart.c ****         huart->Init.WordLength = UART_WORDLENGTH_8B;
  58              		.loc 1 74 30 is_stmt 0 view .LVU9
  59 0012 4FF4E133 		mov	r3, #115200
  60 0016 4360     		str	r3, [r0, #4]
  75:Core/Src/Drivers/Src/usart.c ****         huart->Init.StopBits = UART_STOPBITS_1;
  61              		.loc 1 75 9 is_stmt 1 view .LVU10
  75:Core/Src/Drivers/Src/usart.c ****         huart->Init.StopBits = UART_STOPBITS_1;
  62              		.loc 1 75 32 is_stmt 0 view .LVU11
  63 0018 0023     		movs	r3, #0
  64 001a 8360     		str	r3, [r0, #8]
  76:Core/Src/Drivers/Src/usart.c ****         huart->Init.Parity = UART_PARITY_NONE;
  65              		.loc 1 76 9 is_stmt 1 view .LVU12
  76:Core/Src/Drivers/Src/usart.c ****         huart->Init.Parity = UART_PARITY_NONE;
  66              		.loc 1 76 30 is_stmt 0 view .LVU13
  67 001c C360     		str	r3, [r0, #12]
  77:Core/Src/Drivers/Src/usart.c ****         huart->Init.Mode = UART_MODE_TX_RX;
ARM GAS  C:\Users\Lamp\AppData\Local\Temp\cc3ijpHc.s 			page 4


  68              		.loc 1 77 9 is_stmt 1 view .LVU14
  77:Core/Src/Drivers/Src/usart.c ****         huart->Init.Mode = UART_MODE_TX_RX;
  69              		.loc 1 77 28 is_stmt 0 view .LVU15
  70 001e 0361     		str	r3, [r0, #16]
  78:Core/Src/Drivers/Src/usart.c ****         huart->Init.HwFlowCtl = UART_HWCONTROL_NONE;
  71              		.loc 1 78 9 is_stmt 1 view .LVU16
  78:Core/Src/Drivers/Src/usart.c ****         huart->Init.HwFlowCtl = UART_HWCONTROL_NONE;
  72              		.loc 1 78 26 is_stmt 0 view .LVU17
  73 0020 0C22     		movs	r2, #12
  74 0022 4261     		str	r2, [r0, #20]
  79:Core/Src/Drivers/Src/usart.c ****         huart->Init.OverSampling = UART_OVERSAMPLING_16;
  75              		.loc 1 79 9 is_stmt 1 view .LVU18
  79:Core/Src/Drivers/Src/usart.c ****         huart->Init.OverSampling = UART_OVERSAMPLING_16;
  76              		.loc 1 79 31 is_stmt 0 view .LVU19
  77 0024 8361     		str	r3, [r0, #24]
  80:Core/Src/Drivers/Src/usart.c ****         HAL_UART_Init(huart);
  78              		.loc 1 80 9 is_stmt 1 view .LVU20
  80:Core/Src/Drivers/Src/usart.c ****         HAL_UART_Init(huart);
  79              		.loc 1 80 34 is_stmt 0 view .LVU21
  80 0026 C361     		str	r3, [r0, #28]
  81:Core/Src/Drivers/Src/usart.c ****     }
  81              		.loc 1 81 9 is_stmt 1 view .LVU22
  82 0028 FFF7FEFF 		bl	HAL_UART_Init
  83              	.LVL3:
  81:Core/Src/Drivers/Src/usart.c ****     }
  84              		.loc 1 81 9 is_stmt 0 view .LVU23
  85 002c F0E7     		b	.L1
  86              	.LVL4:
  87              	.L6:
  89:Core/Src/Drivers/Src/usart.c ****         huart->Init.WordLength = UART_WORDLENGTH_8B;
  88              		.loc 1 89 9 is_stmt 1 view .LVU24
  89:Core/Src/Drivers/Src/usart.c ****         huart->Init.WordLength = UART_WORDLENGTH_8B;
  89              		.loc 1 89 30 is_stmt 0 view .LVU25
  90 002e 084B     		ldr	r3, .L7+8
  91 0030 4360     		str	r3, [r0, #4]
  90:Core/Src/Drivers/Src/usart.c ****         huart->Init.StopBits = UART_STOPBITS_1;
  92              		.loc 1 90 9 is_stmt 1 view .LVU26
  90:Core/Src/Drivers/Src/usart.c ****         huart->Init.StopBits = UART_STOPBITS_1;
  93              		.loc 1 90 32 is_stmt 0 view .LVU27
  94 0032 0023     		movs	r3, #0
  95 0034 8360     		str	r3, [r0, #8]
  91:Core/Src/Drivers/Src/usart.c ****         huart->Init.Parity = UART_PARITY_NONE;
  96              		.loc 1 91 9 is_stmt 1 view .LVU28
  91:Core/Src/Drivers/Src/usart.c ****         huart->Init.Parity = UART_PARITY_NONE;
  97              		.loc 1 91 30 is_stmt 0 view .LVU29
  98 0036 C360     		str	r3, [r0, #12]
  92:Core/Src/Drivers/Src/usart.c ****         huart->Init.Mode = UART_MODE_TX_RX;
  99              		.loc 1 92 9 is_stmt 1 view .LVU30
  92:Core/Src/Drivers/Src/usart.c ****         huart->Init.Mode = UART_MODE_TX_RX;
 100              		.loc 1 92 28 is_stmt 0 view .LVU31
 101 0038 0361     		str	r3, [r0, #16]
  93:Core/Src/Drivers/Src/usart.c ****         huart->Init.HwFlowCtl = UART_HWCONTROL_NONE;
 102              		.loc 1 93 9 is_stmt 1 view .LVU32
  93:Core/Src/Drivers/Src/usart.c ****         huart->Init.HwFlowCtl = UART_HWCONTROL_NONE;
 103              		.loc 1 93 26 is_stmt 0 view .LVU33
 104 003a 0C22     		movs	r2, #12
 105 003c 4261     		str	r2, [r0, #20]
ARM GAS  C:\Users\Lamp\AppData\Local\Temp\cc3ijpHc.s 			page 5


  94:Core/Src/Drivers/Src/usart.c ****         huart->Init.OverSampling = UART_OVERSAMPLING_16;
 106              		.loc 1 94 9 is_stmt 1 view .LVU34
  94:Core/Src/Drivers/Src/usart.c ****         huart->Init.OverSampling = UART_OVERSAMPLING_16;
 107              		.loc 1 94 31 is_stmt 0 view .LVU35
 108 003e 8361     		str	r3, [r0, #24]
  95:Core/Src/Drivers/Src/usart.c ****         HAL_UART_Init(huart);
 109              		.loc 1 95 9 is_stmt 1 view .LVU36
  95:Core/Src/Drivers/Src/usart.c ****         HAL_UART_Init(huart);
 110              		.loc 1 95 34 is_stmt 0 view .LVU37
 111 0040 C361     		str	r3, [r0, #28]
  96:Core/Src/Drivers/Src/usart.c ****     }
 112              		.loc 1 96 9 is_stmt 1 view .LVU38
 113 0042 FFF7FEFF 		bl	HAL_UART_Init
 114              	.LVL5:
 115              		.loc 1 98 1 is_stmt 0 view .LVU39
 116 0046 E3E7     		b	.L1
 117              	.L8:
 118              		.align	2
 119              	.L7:
 120 0048 00440040 		.word	1073759232
 121 004c 00480040 		.word	1073760256
 122 0050 00CA0800 		.word	576000
 123              		.cfi_endproc
 124              	.LFE136:
 126              		.section	.text.Driver_USART_Init,"ax",%progbits
 127              		.align	1
 128              		.global	Driver_USART_Init
 129              		.syntax unified
 130              		.thumb
 131              		.thumb_func
 133              	Driver_USART_Init:
 134              	.LFB134:
  12:Core/Src/Drivers/Src/usart.c ****     huart2.Instance = USART2;
 135              		.loc 1 12 1 is_stmt 1 view -0
 136              		.cfi_startproc
 137              		@ args = 0, pretend = 0, frame = 0
 138              		@ frame_needed = 0, uses_anonymous_args = 0
 139 0000 10B5     		push	{r4, lr}
 140              	.LCFI1:
 141              		.cfi_def_cfa_offset 8
 142              		.cfi_offset 4, -8
 143              		.cfi_offset 14, -4
  13:Core/Src/Drivers/Src/usart.c ****     huart3.Instance = USART3;
 144              		.loc 1 13 5 view .LVU41
  13:Core/Src/Drivers/Src/usart.c ****     huart3.Instance = USART3;
 145              		.loc 1 13 21 is_stmt 0 view .LVU42
 146 0002 0648     		ldr	r0, .L11
 147 0004 064B     		ldr	r3, .L11+4
 148 0006 0360     		str	r3, [r0]
  14:Core/Src/Drivers/Src/usart.c ****     UART_Init(&huart2);
 149              		.loc 1 14 5 is_stmt 1 view .LVU43
  14:Core/Src/Drivers/Src/usart.c ****     UART_Init(&huart2);
 150              		.loc 1 14 21 is_stmt 0 view .LVU44
 151 0008 064C     		ldr	r4, .L11+8
 152 000a 03F58063 		add	r3, r3, #1024
 153 000e 2360     		str	r3, [r4]
  15:Core/Src/Drivers/Src/usart.c ****     UART_Init(&huart3);
ARM GAS  C:\Users\Lamp\AppData\Local\Temp\cc3ijpHc.s 			page 6


 154              		.loc 1 15 5 is_stmt 1 view .LVU45
 155 0010 FFF7FEFF 		bl	UART_Init
 156              	.LVL6:
  16:Core/Src/Drivers/Src/usart.c **** }
 157              		.loc 1 16 5 view .LVU46
 158 0014 2046     		mov	r0, r4
 159 0016 FFF7FEFF 		bl	UART_Init
 160              	.LVL7:
  17:Core/Src/Drivers/Src/usart.c **** 
 161              		.loc 1 17 1 is_stmt 0 view .LVU47
 162 001a 10BD     		pop	{r4, pc}
 163              	.L12:
 164              		.align	2
 165              	.L11:
 166 001c 00000000 		.word	huart2
 167 0020 00440040 		.word	1073759232
 168 0024 00000000 		.word	huart3
 169              		.cfi_endproc
 170              	.LFE134:
 172              		.section	.text.HAL_UART_MspInit,"ax",%progbits
 173              		.align	1
 174              		.global	HAL_UART_MspInit
 175              		.syntax unified
 176              		.thumb
 177              		.thumb_func
 179              	HAL_UART_MspInit:
 180              	.LVL8:
 181              	.LFB135:
  20:Core/Src/Drivers/Src/usart.c ****     GPIO_InitTypeDef GPIO_InitStruct = {0};
 182              		.loc 1 20 1 is_stmt 1 view -0
 183              		.cfi_startproc
 184              		@ args = 0, pretend = 0, frame = 40
 185              		@ frame_needed = 0, uses_anonymous_args = 0
  20:Core/Src/Drivers/Src/usart.c ****     GPIO_InitTypeDef GPIO_InitStruct = {0};
 186              		.loc 1 20 1 is_stmt 0 view .LVU49
 187 0000 10B5     		push	{r4, lr}
 188              	.LCFI2:
 189              		.cfi_def_cfa_offset 8
 190              		.cfi_offset 4, -8
 191              		.cfi_offset 14, -4
 192 0002 8AB0     		sub	sp, sp, #40
 193              	.LCFI3:
 194              		.cfi_def_cfa_offset 48
  21:Core/Src/Drivers/Src/usart.c ****     if(huart->Instance==USART2)
 195              		.loc 1 21 5 is_stmt 1 view .LVU50
  21:Core/Src/Drivers/Src/usart.c ****     if(huart->Instance==USART2)
 196              		.loc 1 21 22 is_stmt 0 view .LVU51
 197 0004 0023     		movs	r3, #0
 198 0006 0593     		str	r3, [sp, #20]
 199 0008 0693     		str	r3, [sp, #24]
 200 000a 0793     		str	r3, [sp, #28]
 201 000c 0893     		str	r3, [sp, #32]
 202 000e 0993     		str	r3, [sp, #36]
  22:Core/Src/Drivers/Src/usart.c ****     {
 203              		.loc 1 22 5 is_stmt 1 view .LVU52
  22:Core/Src/Drivers/Src/usart.c ****     {
 204              		.loc 1 22 13 is_stmt 0 view .LVU53
ARM GAS  C:\Users\Lamp\AppData\Local\Temp\cc3ijpHc.s 			page 7


 205 0010 0368     		ldr	r3, [r0]
  22:Core/Src/Drivers/Src/usart.c ****     {
 206              		.loc 1 22 7 view .LVU54
 207 0012 2F4A     		ldr	r2, .L19
 208 0014 9342     		cmp	r3, r2
 209 0016 04D0     		beq	.L17
  43:Core/Src/Drivers/Src/usart.c ****     {
 210              		.loc 1 43 10 is_stmt 1 view .LVU55
  43:Core/Src/Drivers/Src/usart.c ****     {
 211              		.loc 1 43 12 is_stmt 0 view .LVU56
 212 0018 2E4A     		ldr	r2, .L19+4
 213 001a 9342     		cmp	r3, r2
 214 001c 2CD0     		beq	.L18
 215              	.LVL9:
 216              	.L13:
  64:Core/Src/Drivers/Src/usart.c **** 
 217              		.loc 1 64 1 view .LVU57
 218 001e 0AB0     		add	sp, sp, #40
 219              	.LCFI4:
 220              		.cfi_remember_state
 221              		.cfi_def_cfa_offset 8
 222              		@ sp needed
 223 0020 10BD     		pop	{r4, pc}
 224              	.LVL10:
 225              	.L17:
 226              	.LCFI5:
 227              		.cfi_restore_state
  25:Core/Src/Drivers/Src/usart.c ****         __HAL_RCC_GPIOA_CLK_ENABLE();
 228              		.loc 1 25 9 is_stmt 1 view .LVU58
 229              	.LBB2:
  25:Core/Src/Drivers/Src/usart.c ****         __HAL_RCC_GPIOA_CLK_ENABLE();
 230              		.loc 1 25 9 view .LVU59
 231 0022 0024     		movs	r4, #0
 232 0024 0194     		str	r4, [sp, #4]
  25:Core/Src/Drivers/Src/usart.c ****         __HAL_RCC_GPIOA_CLK_ENABLE();
 233              		.loc 1 25 9 view .LVU60
 234 0026 2C4B     		ldr	r3, .L19+8
 235 0028 1A6C     		ldr	r2, [r3, #64]
 236 002a 42F40032 		orr	r2, r2, #131072
 237 002e 1A64     		str	r2, [r3, #64]
  25:Core/Src/Drivers/Src/usart.c ****         __HAL_RCC_GPIOA_CLK_ENABLE();
 238              		.loc 1 25 9 view .LVU61
 239 0030 1A6C     		ldr	r2, [r3, #64]
 240 0032 02F40032 		and	r2, r2, #131072
 241 0036 0192     		str	r2, [sp, #4]
  25:Core/Src/Drivers/Src/usart.c ****         __HAL_RCC_GPIOA_CLK_ENABLE();
 242              		.loc 1 25 9 view .LVU62
 243 0038 019A     		ldr	r2, [sp, #4]
 244              	.LBE2:
  25:Core/Src/Drivers/Src/usart.c ****         __HAL_RCC_GPIOA_CLK_ENABLE();
 245              		.loc 1 25 9 view .LVU63
  26:Core/Src/Drivers/Src/usart.c ****         
 246              		.loc 1 26 9 view .LVU64
 247              	.LBB3:
  26:Core/Src/Drivers/Src/usart.c ****         
 248              		.loc 1 26 9 view .LVU65
 249 003a 0294     		str	r4, [sp, #8]
ARM GAS  C:\Users\Lamp\AppData\Local\Temp\cc3ijpHc.s 			page 8


  26:Core/Src/Drivers/Src/usart.c ****         
 250              		.loc 1 26 9 view .LVU66
 251 003c 1A6B     		ldr	r2, [r3, #48]
 252 003e 42F00102 		orr	r2, r2, #1
 253 0042 1A63     		str	r2, [r3, #48]
  26:Core/Src/Drivers/Src/usart.c ****         
 254              		.loc 1 26 9 view .LVU67
 255 0044 1B6B     		ldr	r3, [r3, #48]
 256 0046 03F00103 		and	r3, r3, #1
 257 004a 0293     		str	r3, [sp, #8]
  26:Core/Src/Drivers/Src/usart.c ****         
 258              		.loc 1 26 9 view .LVU68
 259 004c 029B     		ldr	r3, [sp, #8]
 260              	.LBE3:
  26:Core/Src/Drivers/Src/usart.c ****         
 261              		.loc 1 26 9 view .LVU69
  32:Core/Src/Drivers/Src/usart.c ****         GPIO_InitStruct.Mode = GPIO_MODE_AF_PP;
 262              		.loc 1 32 9 view .LVU70
  32:Core/Src/Drivers/Src/usart.c ****         GPIO_InitStruct.Mode = GPIO_MODE_AF_PP;
 263              		.loc 1 32 29 is_stmt 0 view .LVU71
 264 004e 0C23     		movs	r3, #12
 265 0050 0593     		str	r3, [sp, #20]
  33:Core/Src/Drivers/Src/usart.c ****         GPIO_InitStruct.Pull = GPIO_NOPULL;
 266              		.loc 1 33 9 is_stmt 1 view .LVU72
  33:Core/Src/Drivers/Src/usart.c ****         GPIO_InitStruct.Pull = GPIO_NOPULL;
 267              		.loc 1 33 30 is_stmt 0 view .LVU73
 268 0052 0223     		movs	r3, #2
 269 0054 0693     		str	r3, [sp, #24]
  34:Core/Src/Drivers/Src/usart.c ****         GPIO_InitStruct.Speed = GPIO_SPEED_FREQ_VERY_HIGH;
 270              		.loc 1 34 9 is_stmt 1 view .LVU74
  35:Core/Src/Drivers/Src/usart.c ****         GPIO_InitStruct.Alternate = GPIO_AF7_USART2;
 271              		.loc 1 35 9 view .LVU75
  35:Core/Src/Drivers/Src/usart.c ****         GPIO_InitStruct.Alternate = GPIO_AF7_USART2;
 272              		.loc 1 35 31 is_stmt 0 view .LVU76
 273 0056 0323     		movs	r3, #3
 274 0058 0893     		str	r3, [sp, #32]
  36:Core/Src/Drivers/Src/usart.c ****         HAL_GPIO_Init(GPIOA, &GPIO_InitStruct);
 275              		.loc 1 36 9 is_stmt 1 view .LVU77
  36:Core/Src/Drivers/Src/usart.c ****         HAL_GPIO_Init(GPIOA, &GPIO_InitStruct);
 276              		.loc 1 36 35 is_stmt 0 view .LVU78
 277 005a 0723     		movs	r3, #7
 278 005c 0993     		str	r3, [sp, #36]
  37:Core/Src/Drivers/Src/usart.c **** 
 279              		.loc 1 37 9 is_stmt 1 view .LVU79
 280 005e 05A9     		add	r1, sp, #20
 281 0060 1E48     		ldr	r0, .L19+12
 282              	.LVL11:
  37:Core/Src/Drivers/Src/usart.c **** 
 283              		.loc 1 37 9 is_stmt 0 view .LVU80
 284 0062 FFF7FEFF 		bl	HAL_GPIO_Init
 285              	.LVL12:
  40:Core/Src/Drivers/Src/usart.c ****         HAL_NVIC_EnableIRQ(USART2_IRQn);
 286              		.loc 1 40 9 is_stmt 1 view .LVU81
 287 0066 2246     		mov	r2, r4
 288 0068 0921     		movs	r1, #9
 289 006a 2620     		movs	r0, #38
 290 006c FFF7FEFF 		bl	HAL_NVIC_SetPriority
ARM GAS  C:\Users\Lamp\AppData\Local\Temp\cc3ijpHc.s 			page 9


 291              	.LVL13:
  41:Core/Src/Drivers/Src/usart.c ****     }
 292              		.loc 1 41 9 view .LVU82
 293 0070 2620     		movs	r0, #38
 294 0072 FFF7FEFF 		bl	HAL_NVIC_EnableIRQ
 295              	.LVL14:
 296 0076 D2E7     		b	.L13
 297              	.LVL15:
 298              	.L18:
  46:Core/Src/Drivers/Src/usart.c ****         __HAL_RCC_GPIOB_CLK_ENABLE();
 299              		.loc 1 46 9 view .LVU83
 300              	.LBB4:
  46:Core/Src/Drivers/Src/usart.c ****         __HAL_RCC_GPIOB_CLK_ENABLE();
 301              		.loc 1 46 9 view .LVU84
 302 0078 0024     		movs	r4, #0
 303 007a 0394     		str	r4, [sp, #12]
  46:Core/Src/Drivers/Src/usart.c ****         __HAL_RCC_GPIOB_CLK_ENABLE();
 304              		.loc 1 46 9 view .LVU85
 305 007c 164B     		ldr	r3, .L19+8
 306 007e 1A6C     		ldr	r2, [r3, #64]
 307 0080 42F48022 		orr	r2, r2, #262144
 308 0084 1A64     		str	r2, [r3, #64]
  46:Core/Src/Drivers/Src/usart.c ****         __HAL_RCC_GPIOB_CLK_ENABLE();
 309              		.loc 1 46 9 view .LVU86
 310 0086 1A6C     		ldr	r2, [r3, #64]
 311 0088 02F48022 		and	r2, r2, #262144
 312 008c 0392     		str	r2, [sp, #12]
  46:Core/Src/Drivers/Src/usart.c ****         __HAL_RCC_GPIOB_CLK_ENABLE();
 313              		.loc 1 46 9 view .LVU87
 314 008e 039A     		ldr	r2, [sp, #12]
 315              	.LBE4:
  46:Core/Src/Drivers/Src/usart.c ****         __HAL_RCC_GPIOB_CLK_ENABLE();
 316              		.loc 1 46 9 view .LVU88
  47:Core/Src/Drivers/Src/usart.c **** 
 317              		.loc 1 47 9 view .LVU89
 318              	.LBB5:
  47:Core/Src/Drivers/Src/usart.c **** 
 319              		.loc 1 47 9 view .LVU90
 320 0090 0494     		str	r4, [sp, #16]
  47:Core/Src/Drivers/Src/usart.c **** 
 321              		.loc 1 47 9 view .LVU91
 322 0092 1A6B     		ldr	r2, [r3, #48]
 323 0094 42F00202 		orr	r2, r2, #2
 324 0098 1A63     		str	r2, [r3, #48]
  47:Core/Src/Drivers/Src/usart.c **** 
 325              		.loc 1 47 9 view .LVU92
 326 009a 1B6B     		ldr	r3, [r3, #48]
 327 009c 03F00203 		and	r3, r3, #2
 328 00a0 0493     		str	r3, [sp, #16]
  47:Core/Src/Drivers/Src/usart.c **** 
 329              		.loc 1 47 9 view .LVU93
 330 00a2 049B     		ldr	r3, [sp, #16]
 331              	.LBE5:
  47:Core/Src/Drivers/Src/usart.c **** 
 332              		.loc 1 47 9 view .LVU94
  53:Core/Src/Drivers/Src/usart.c ****         GPIO_InitStruct.Mode = GPIO_MODE_AF_PP;
 333              		.loc 1 53 9 view .LVU95
ARM GAS  C:\Users\Lamp\AppData\Local\Temp\cc3ijpHc.s 			page 10


  53:Core/Src/Drivers/Src/usart.c ****         GPIO_InitStruct.Mode = GPIO_MODE_AF_PP;
 334              		.loc 1 53 29 is_stmt 0 view .LVU96
 335 00a4 4FF44063 		mov	r3, #3072
 336 00a8 0593     		str	r3, [sp, #20]
  54:Core/Src/Drivers/Src/usart.c ****         GPIO_InitStruct.Pull = GPIO_NOPULL;
 337              		.loc 1 54 9 is_stmt 1 view .LVU97
  54:Core/Src/Drivers/Src/usart.c ****         GPIO_InitStruct.Pull = GPIO_NOPULL;
 338              		.loc 1 54 30 is_stmt 0 view .LVU98
 339 00aa 0223     		movs	r3, #2
 340 00ac 0693     		str	r3, [sp, #24]
  55:Core/Src/Drivers/Src/usart.c ****         GPIO_InitStruct.Speed = GPIO_SPEED_FREQ_VERY_HIGH;
 341              		.loc 1 55 9 is_stmt 1 view .LVU99
  56:Core/Src/Drivers/Src/usart.c ****         GPIO_InitStruct.Alternate = GPIO_AF7_USART3;
 342              		.loc 1 56 9 view .LVU100
  56:Core/Src/Drivers/Src/usart.c ****         GPIO_InitStruct.Alternate = GPIO_AF7_USART3;
 343              		.loc 1 56 31 is_stmt 0 view .LVU101
 344 00ae 0323     		movs	r3, #3
 345 00b0 0893     		str	r3, [sp, #32]
  57:Core/Src/Drivers/Src/usart.c ****         HAL_GPIO_Init(GPIOB, &GPIO_InitStruct);
 346              		.loc 1 57 9 is_stmt 1 view .LVU102
  57:Core/Src/Drivers/Src/usart.c ****         HAL_GPIO_Init(GPIOB, &GPIO_InitStruct);
 347              		.loc 1 57 35 is_stmt 0 view .LVU103
 348 00b2 0723     		movs	r3, #7
 349 00b4 0993     		str	r3, [sp, #36]
  58:Core/Src/Drivers/Src/usart.c **** 
 350              		.loc 1 58 9 is_stmt 1 view .LVU104
 351 00b6 05A9     		add	r1, sp, #20
 352 00b8 0948     		ldr	r0, .L19+16
 353              	.LVL16:
  58:Core/Src/Drivers/Src/usart.c **** 
 354              		.loc 1 58 9 is_stmt 0 view .LVU105
 355 00ba FFF7FEFF 		bl	HAL_GPIO_Init
 356              	.LVL17:
  61:Core/Src/Drivers/Src/usart.c ****         HAL_NVIC_EnableIRQ(USART3_IRQn);
 357              		.loc 1 61 9 is_stmt 1 view .LVU106
 358 00be 2246     		mov	r2, r4
 359 00c0 0A21     		movs	r1, #10
 360 00c2 2720     		movs	r0, #39
 361 00c4 FFF7FEFF 		bl	HAL_NVIC_SetPriority
 362              	.LVL18:
  62:Core/Src/Drivers/Src/usart.c ****     }
 363              		.loc 1 62 9 view .LVU107
 364 00c8 2720     		movs	r0, #39
 365 00ca FFF7FEFF 		bl	HAL_NVIC_EnableIRQ
 366              	.LVL19:
  64:Core/Src/Drivers/Src/usart.c **** 
 367              		.loc 1 64 1 is_stmt 0 view .LVU108
 368 00ce A6E7     		b	.L13
 369              	.L20:
 370              		.align	2
 371              	.L19:
 372 00d0 00440040 		.word	1073759232
 373 00d4 00480040 		.word	1073760256
 374 00d8 00380240 		.word	1073887232
 375 00dc 00000240 		.word	1073872896
 376 00e0 00040240 		.word	1073873920
 377              		.cfi_endproc
ARM GAS  C:\Users\Lamp\AppData\Local\Temp\cc3ijpHc.s 			page 11


 378              	.LFE135:
 380              		.section	.text.USART2_IRQHandler,"ax",%progbits
 381              		.align	1
 382              		.global	USART2_IRQHandler
 383              		.syntax unified
 384              		.thumb
 385              		.thumb_func
 387              	USART2_IRQHandler:
 388              	.LFB137:
  99:Core/Src/Drivers/Src/usart.c **** 
 100:Core/Src/Drivers/Src/usart.c **** /**
 101:Core/Src/Drivers/Src/usart.c ****   * @brief This function handles USART2 global interrupt.
 102:Core/Src/Drivers/Src/usart.c ****   */
 103:Core/Src/Drivers/Src/usart.c **** void USART2_IRQHandler(void)
 104:Core/Src/Drivers/Src/usart.c **** {
 389              		.loc 1 104 1 is_stmt 1 view -0
 390              		.cfi_startproc
 391              		@ args = 0, pretend = 0, frame = 0
 392              		@ frame_needed = 0, uses_anonymous_args = 0
 393 0000 08B5     		push	{r3, lr}
 394              	.LCFI6:
 395              		.cfi_def_cfa_offset 8
 396              		.cfi_offset 3, -8
 397              		.cfi_offset 14, -4
 105:Core/Src/Drivers/Src/usart.c ****     HAL_UART_IRQHandler(&huart2);
 398              		.loc 1 105 5 view .LVU110
 399 0002 0248     		ldr	r0, .L23
 400 0004 FFF7FEFF 		bl	HAL_UART_IRQHandler
 401              	.LVL20:
 106:Core/Src/Drivers/Src/usart.c **** }
 402              		.loc 1 106 1 is_stmt 0 view .LVU111
 403 0008 08BD     		pop	{r3, pc}
 404              	.L24:
 405 000a 00BF     		.align	2
 406              	.L23:
 407 000c 00000000 		.word	huart2
 408              		.cfi_endproc
 409              	.LFE137:
 411              		.section	.text.USART3_IRQHandler,"ax",%progbits
 412              		.align	1
 413              		.global	USART3_IRQHandler
 414              		.syntax unified
 415              		.thumb
 416              		.thumb_func
 418              	USART3_IRQHandler:
 419              	.LFB138:
 107:Core/Src/Drivers/Src/usart.c **** 
 108:Core/Src/Drivers/Src/usart.c **** /**
 109:Core/Src/Drivers/Src/usart.c ****   * @brief This function handles USART3 global interrupt.
 110:Core/Src/Drivers/Src/usart.c ****   */
 111:Core/Src/Drivers/Src/usart.c **** void USART3_IRQHandler(void)
 112:Core/Src/Drivers/Src/usart.c **** {
 420              		.loc 1 112 1 is_stmt 1 view -0
 421              		.cfi_startproc
 422              		@ args = 0, pretend = 0, frame = 0
 423              		@ frame_needed = 0, uses_anonymous_args = 0
 424 0000 08B5     		push	{r3, lr}
ARM GAS  C:\Users\Lamp\AppData\Local\Temp\cc3ijpHc.s 			page 12


 425              	.LCFI7:
 426              		.cfi_def_cfa_offset 8
 427              		.cfi_offset 3, -8
 428              		.cfi_offset 14, -4
 113:Core/Src/Drivers/Src/usart.c ****     HAL_UART_IRQHandler(&huart3);
 429              		.loc 1 113 5 view .LVU113
 430 0002 0248     		ldr	r0, .L27
 431 0004 FFF7FEFF 		bl	HAL_UART_IRQHandler
 432              	.LVL21:
 114:Core/Src/Drivers/Src/usart.c **** }
 433              		.loc 1 114 1 is_stmt 0 view .LVU114
 434 0008 08BD     		pop	{r3, pc}
 435              	.L28:
 436 000a 00BF     		.align	2
 437              	.L27:
 438 000c 00000000 		.word	huart3
 439              		.cfi_endproc
 440              	.LFE138:
 442              		.section	.text.SendBuffer,"ax",%progbits
 443              		.align	1
 444              		.global	SendBuffer
 445              		.syntax unified
 446              		.thumb
 447              		.thumb_func
 449              	SendBuffer:
 450              	.LVL22:
 451              	.LFB139:
 115:Core/Src/Drivers/Src/usart.c **** 
 116:Core/Src/Drivers/Src/usart.c **** void SendBuffer(UART_HandleTypeDef *huart, char* buffer) {
 452              		.loc 1 116 58 is_stmt 1 view -0
 453              		.cfi_startproc
 454              		@ args = 0, pretend = 0, frame = 0
 455              		@ frame_needed = 0, uses_anonymous_args = 0
 456              		.loc 1 116 58 is_stmt 0 view .LVU116
 457 0000 38B5     		push	{r3, r4, r5, lr}
 458              	.LCFI8:
 459              		.cfi_def_cfa_offset 16
 460              		.cfi_offset 3, -16
 461              		.cfi_offset 4, -12
 462              		.cfi_offset 5, -8
 463              		.cfi_offset 14, -4
 464 0002 0546     		mov	r5, r0
 465 0004 0C46     		mov	r4, r1
 117:Core/Src/Drivers/Src/usart.c ****     uint64_t length = strlen(buffer);
 466              		.loc 1 117 5 is_stmt 1 view .LVU117
 467              		.loc 1 117 23 is_stmt 0 view .LVU118
 468 0006 0846     		mov	r0, r1
 469              	.LVL23:
 470              		.loc 1 117 23 view .LVU119
 471 0008 FFF7FEFF 		bl	strlen
 472              	.LVL24:
 118:Core/Src/Drivers/Src/usart.c ****     HAL_UART_Transmit_IT(huart, (uint8_t*) buffer, length);
 473              		.loc 1 118 5 is_stmt 1 view .LVU120
 474 000c 82B2     		uxth	r2, r0
 475 000e 2146     		mov	r1, r4
 476 0010 2846     		mov	r0, r5
 477              	.LVL25:
ARM GAS  C:\Users\Lamp\AppData\Local\Temp\cc3ijpHc.s 			page 13


 478              		.loc 1 118 5 is_stmt 0 view .LVU121
 479 0012 FFF7FEFF 		bl	HAL_UART_Transmit_IT
 480              	.LVL26:
 119:Core/Src/Drivers/Src/usart.c **** }
 481              		.loc 1 119 1 view .LVU122
 482 0016 38BD     		pop	{r3, r4, r5, pc}
 483              		.loc 1 119 1 view .LVU123
 484              		.cfi_endproc
 485              	.LFE139:
 487              		.global	huart3
 488              		.section	.bss.huart3,"aw",%nobits
 489              		.align	2
 492              	huart3:
 493 0000 00000000 		.space	72
 493      00000000 
 493      00000000 
 493      00000000 
 493      00000000 
 494              		.global	huart2
 495              		.section	.bss.huart2,"aw",%nobits
 496              		.align	2
 499              	huart2:
 500 0000 00000000 		.space	72
 500      00000000 
 500      00000000 
 500      00000000 
 500      00000000 
 501              		.text
 502              	.Letext0:
 503              		.file 2 "Drivers/CMSIS/Device/ST/STM32F4xx/Include/stm32f407xx.h"
 504              		.file 3 "C:/ARM GNU Toolchain/arm-none-eabi/include/machine/_default_types.h"
 505              		.file 4 "C:/ARM GNU Toolchain/arm-none-eabi/include/sys/_stdint.h"
 506              		.file 5 "C:/ARM GNU Toolchain/lib/gcc/arm-none-eabi/13.3.1/include/stddef.h"
 507              		.file 6 "Drivers/STM32F4xx_HAL_Driver/Inc/stm32f4xx_hal_def.h"
 508              		.file 7 "Drivers/STM32F4xx_HAL_Driver/Inc/stm32f4xx_hal_gpio.h"
 509              		.file 8 "Drivers/STM32F4xx_HAL_Driver/Inc/stm32f4xx_hal_dma.h"
 510              		.file 9 "Drivers/STM32F4xx_HAL_Driver/Inc/stm32f4xx_hal_uart.h"
 511              		.file 10 "C:/ARM GNU Toolchain/arm-none-eabi/include/string.h"
 512              		.file 11 "Drivers/STM32F4xx_HAL_Driver/Inc/stm32f4xx_hal_cortex.h"
ARM GAS  C:\Users\Lamp\AppData\Local\Temp\cc3ijpHc.s 			page 14


DEFINED SYMBOLS
                            *ABS*:00000000 usart.c
C:\Users\Lamp\AppData\Local\Temp\cc3ijpHc.s:21     .text.UART_Init:00000000 $t
C:\Users\Lamp\AppData\Local\Temp\cc3ijpHc.s:26     .text.UART_Init:00000000 UART_Init
C:\Users\Lamp\AppData\Local\Temp\cc3ijpHc.s:120    .text.UART_Init:00000048 $d
C:\Users\Lamp\AppData\Local\Temp\cc3ijpHc.s:127    .text.Driver_USART_Init:00000000 $t
C:\Users\Lamp\AppData\Local\Temp\cc3ijpHc.s:133    .text.Driver_USART_Init:00000000 Driver_USART_Init
C:\Users\Lamp\AppData\Local\Temp\cc3ijpHc.s:166    .text.Driver_USART_Init:0000001c $d
C:\Users\Lamp\AppData\Local\Temp\cc3ijpHc.s:499    .bss.huart2:00000000 huart2
C:\Users\Lamp\AppData\Local\Temp\cc3ijpHc.s:492    .bss.huart3:00000000 huart3
C:\Users\Lamp\AppData\Local\Temp\cc3ijpHc.s:173    .text.HAL_UART_MspInit:00000000 $t
C:\Users\Lamp\AppData\Local\Temp\cc3ijpHc.s:179    .text.HAL_UART_MspInit:00000000 HAL_UART_MspInit
C:\Users\Lamp\AppData\Local\Temp\cc3ijpHc.s:372    .text.HAL_UART_MspInit:000000d0 $d
C:\Users\Lamp\AppData\Local\Temp\cc3ijpHc.s:381    .text.USART2_IRQHandler:00000000 $t
C:\Users\Lamp\AppData\Local\Temp\cc3ijpHc.s:387    .text.USART2_IRQHandler:00000000 USART2_IRQHandler
C:\Users\Lamp\AppData\Local\Temp\cc3ijpHc.s:407    .text.USART2_IRQHandler:0000000c $d
C:\Users\Lamp\AppData\Local\Temp\cc3ijpHc.s:412    .text.USART3_IRQHandler:00000000 $t
C:\Users\Lamp\AppData\Local\Temp\cc3ijpHc.s:418    .text.USART3_IRQHandler:00000000 USART3_IRQHandler
C:\Users\Lamp\AppData\Local\Temp\cc3ijpHc.s:438    .text.USART3_IRQHandler:0000000c $d
C:\Users\Lamp\AppData\Local\Temp\cc3ijpHc.s:443    .text.SendBuffer:00000000 $t
C:\Users\Lamp\AppData\Local\Temp\cc3ijpHc.s:449    .text.SendBuffer:00000000 SendBuffer
C:\Users\Lamp\AppData\Local\Temp\cc3ijpHc.s:489    .bss.huart3:00000000 $d
C:\Users\Lamp\AppData\Local\Temp\cc3ijpHc.s:496    .bss.huart2:00000000 $d

UNDEFINED SYMBOLS
HAL_UART_Init
HAL_GPIO_Init
HAL_NVIC_SetPriority
HAL_NVIC_EnableIRQ
HAL_UART_IRQHandler
strlen
HAL_UART_Transmit_IT
