ARM GAS  C:\Users\Lamp\AppData\Local\Temp\ccGE2Sfq.s 			page 1


   1              		.cpu cortex-m4
   2              		.arch armv7e-m
   3              		.fpu fpv4-sp-d16
   4              		.eabi_attribute 27, 1
   5              		.eabi_attribute 28, 1
   6              		.eabi_attribute 20, 1
   7              		.eabi_attribute 21, 1
   8              		.eabi_attribute 23, 3
   9              		.eabi_attribute 24, 1
  10              		.eabi_attribute 25, 1
  11              		.eabi_attribute 26, 1
  12              		.eabi_attribute 30, 1
  13              		.eabi_attribute 34, 1
  14              		.eabi_attribute 18, 4
  15              		.file	"usart.c"
  16              		.text
  17              	.Ltext0:
  18              		.cfi_sections	.debug_frame
  19              		.file 1 "Core/Src/Drivers/Src/usart.c"
  20              		.section	.text.ExtractMessage,"ax",%progbits
  21              		.align	1
  22              		.syntax unified
  23              		.thumb
  24              		.thumb_func
  26              	ExtractMessage:
  27              	.LVL0:
  28              	.LFB175:
   1:Core/Src/Drivers/Src/usart.c **** #include "usart.h"
   2:Core/Src/Drivers/Src/usart.c **** 
   3:Core/Src/Drivers/Src/usart.c **** UART_HandleTypeDef huart2;
   4:Core/Src/Drivers/Src/usart.c **** UART_HandleTypeDef huart3;
   5:Core/Src/Drivers/Src/usart.c **** 
   6:Core/Src/Drivers/Src/usart.c **** extern struct Active * AO_Computer;
   7:Core/Src/Drivers/Src/usart.c **** extern struct Active * AO_Motor;
   8:Core/Src/Drivers/Src/usart.c **** extern struct Computer * computer;
   9:Core/Src/Drivers/Src/usart.c **** extern struct Motor * motor; 
  10:Core/Src/Drivers/Src/usart.c **** 
  11:Core/Src/Drivers/Src/usart.c **** extern uint8_t rx_byte_data;
  12:Core/Src/Drivers/Src/usart.c **** 
  13:Core/Src/Drivers/Src/usart.c **** static const uint32_t TEN_POWER[] = {1, 10, 100, 1000};
  14:Core/Src/Drivers/Src/usart.c **** 
  15:Core/Src/Drivers/Src/usart.c **** static int16_t ExtractMessage(RecivedMessage * received_message) {
  29              		.loc 1 15 66 view -0
  30              		.cfi_startproc
  31              		@ args = 0, pretend = 0, frame = 0
  32              		@ frame_needed = 0, uses_anonymous_args = 0
  33              		.loc 1 15 66 is_stmt 0 view .LVU1
  34 0000 30B5     		push	{r4, r5, lr}
  35              	.LCFI0:
  36              		.cfi_def_cfa_offset 12
  37              		.cfi_offset 4, -12
  38              		.cfi_offset 5, -8
  39              		.cfi_offset 14, -4
  16:Core/Src/Drivers/Src/usart.c ****     int16_t d = 0;
  40              		.loc 1 16 5 is_stmt 1 view .LVU2
  41              	.LVL1:
  17:Core/Src/Drivers/Src/usart.c ****     int16_t sign = 1;
ARM GAS  C:\Users\Lamp\AppData\Local\Temp\ccGE2Sfq.s 			page 2


  42              		.loc 1 17 5 view .LVU3
  18:Core/Src/Drivers/Src/usart.c ****     uint8_t n = received_message->length;
  43              		.loc 1 18 5 view .LVU4
  44              		.loc 1 18 13 is_stmt 0 view .LVU5
  45 0002 90F807E0 		ldrb	lr, [r0, #7]	@ zero_extendqisi2
  46              	.LVL2:
  19:Core/Src/Drivers/Src/usart.c ****     uint8_t num;
  47              		.loc 1 19 5 is_stmt 1 view .LVU6
  20:Core/Src/Drivers/Src/usart.c **** 
  21:Core/Src/Drivers/Src/usart.c ****     for(int index = 0; index < n; index++) {
  48              		.loc 1 21 5 view .LVU7
  49              	.LBB2:
  50              		.loc 1 21 9 view .LVU8
  51              		.loc 1 21 13 is_stmt 0 view .LVU9
  52 0006 0022     		movs	r2, #0
  53              	.LBE2:
  17:Core/Src/Drivers/Src/usart.c ****     uint8_t n = received_message->length;
  54              		.loc 1 17 13 view .LVU10
  55 0008 0125     		movs	r5, #1
  16:Core/Src/Drivers/Src/usart.c ****     int16_t sign = 1;
  56              		.loc 1 16 13 view .LVU11
  57 000a 1146     		mov	r1, r2
  58              	.LBB3:
  59              		.loc 1 21 5 view .LVU12
  60 000c 02E0     		b	.L2
  61              	.LVL3:
  62              	.L5:
  22:Core/Src/Drivers/Src/usart.c ****         /* Để phân biệt giá trị âm hay dương của xung pwm */
  23:Core/Src/Drivers/Src/usart.c ****         if(received_message->message[index] == '-') {
  24:Core/Src/Drivers/Src/usart.c ****             sign = -1;
  63              		.loc 1 24 18 view .LVU13
  64 000e 4FF0FF35 		mov	r5, #-1
  65              	.LVL4:
  66              	.L3:
  21:Core/Src/Drivers/Src/usart.c ****         /* Để phân biệt giá trị âm hay dương của xung pwm */
  67              		.loc 1 21 40 is_stmt 1 discriminator 2 view .LVU14
  68 0012 0132     		adds	r2, r2, #1
  69              	.LVL5:
  70              	.L2:
  21:Core/Src/Drivers/Src/usart.c ****         /* Để phân biệt giá trị âm hay dương của xung pwm */
  71              		.loc 1 21 30 discriminator 1 view .LVU15
  72 0014 9645     		cmp	lr, r2
  73 0016 10DD     		ble	.L7
  23:Core/Src/Drivers/Src/usart.c ****             sign = -1;
  74              		.loc 1 23 9 view .LVU16
  23:Core/Src/Drivers/Src/usart.c ****             sign = -1;
  75              		.loc 1 23 37 is_stmt 0 view .LVU17
  76 0018 835C     		ldrb	r3, [r0, r2]	@ zero_extendqisi2
  23:Core/Src/Drivers/Src/usart.c ****             sign = -1;
  77              		.loc 1 23 11 view .LVU18
  78 001a 2D2B     		cmp	r3, #45
  79 001c F7D0     		beq	.L5
  25:Core/Src/Drivers/Src/usart.c ****             continue;
  26:Core/Src/Drivers/Src/usart.c ****         }
  27:Core/Src/Drivers/Src/usart.c **** 
  28:Core/Src/Drivers/Src/usart.c ****         /**
  29:Core/Src/Drivers/Src/usart.c ****          * Đây là phương pháp sử dụng giá trị trong bảng mã ASCII
ARM GAS  C:\Users\Lamp\AppData\Local\Temp\ccGE2Sfq.s 			page 3


  30:Core/Src/Drivers/Src/usart.c ****          * để chuyển đổi từ chuỗi sang số nguyên
  31:Core/Src/Drivers/Src/usart.c ****          */
  32:Core/Src/Drivers/Src/usart.c ****         num = received_message->message[index] - '0';
  80              		.loc 1 32 9 is_stmt 1 view .LVU19
  81              		.loc 1 32 13 is_stmt 0 view .LVU20
  82 001e 303B     		subs	r3, r3, #48
  83 0020 DBB2     		uxtb	r3, r3
  84              	.LVL6:
  33:Core/Src/Drivers/Src/usart.c ****         d = d + (int16_t)(num * TEN_POWER[n - 1 - index]);
  85              		.loc 1 33 9 is_stmt 1 view .LVU21
  86              		.loc 1 33 45 is_stmt 0 view .LVU22
  87 0022 0EF1FF3C 		add	ip, lr, #-1
  88              		.loc 1 33 49 view .LVU23
  89 0026 ACEB020C 		sub	ip, ip, r2
  90              		.loc 1 33 42 view .LVU24
  91 002a 064C     		ldr	r4, .L8
  92 002c 54F82C40 		ldr	r4, [r4, ip, lsl #2]
  93              		.loc 1 33 15 view .LVU25
  94 0030 13FB04F3 		smulbb	r3, r3, r4
  95              	.LVL7:
  96              		.loc 1 33 15 view .LVU26
  97 0034 1944     		add	r1, r1, r3
  98              	.LVL8:
  99              		.loc 1 33 11 view .LVU27
 100 0036 09B2     		sxth	r1, r1
 101              	.LVL9:
 102              		.loc 1 33 11 view .LVU28
 103 0038 EBE7     		b	.L3
 104              	.LVL10:
 105              	.L7:
 106              		.loc 1 33 11 view .LVU29
 107              	.LBE3:
  34:Core/Src/Drivers/Src/usart.c ****     }
  35:Core/Src/Drivers/Src/usart.c **** 
  36:Core/Src/Drivers/Src/usart.c ****     return d * sign;
 108              		.loc 1 36 5 is_stmt 1 view .LVU30
 109              		.loc 1 36 14 is_stmt 0 view .LVU31
 110 003a 11FB05F0 		smulbb	r0, r1, r5
 111              	.LVL11:
  37:Core/Src/Drivers/Src/usart.c **** }
 112              		.loc 1 37 1 view .LVU32
 113 003e 00B2     		sxth	r0, r0
 114 0040 30BD     		pop	{r4, r5, pc}
 115              	.LVL12:
 116              	.L9:
 117              		.loc 1 37 1 view .LVU33
 118 0042 00BF     		.align	2
 119              	.L8:
 120 0044 00000000 		.word	TEN_POWER
 121              		.cfi_endproc
 122              	.LFE175:
 124              		.section	.text.UART_Init,"ax",%progbits
 125              		.align	1
 126              		.syntax unified
 127              		.thumb
 128              		.thumb_func
 130              	UART_Init:
ARM GAS  C:\Users\Lamp\AppData\Local\Temp\ccGE2Sfq.s 			page 4


 131              	.LVL13:
 132              	.LFB180:
  38:Core/Src/Drivers/Src/usart.c **** 
  39:Core/Src/Drivers/Src/usart.c **** /**
  40:Core/Src/Drivers/Src/usart.c ****   * @brief  Tx Transfer completed callbacks.
  41:Core/Src/Drivers/Src/usart.c ****   * @param  huart  Pointer to a UART_HandleTypeDef structure that contains
  42:Core/Src/Drivers/Src/usart.c ****   *                the configuration information for the specified UART module.
  43:Core/Src/Drivers/Src/usart.c ****   * @retval None
  44:Core/Src/Drivers/Src/usart.c ****   */
  45:Core/Src/Drivers/Src/usart.c **** void HAL_UART_TxCpltCallback(UART_HandleTypeDef *huart)
  46:Core/Src/Drivers/Src/usart.c **** {
  47:Core/Src/Drivers/Src/usart.c ****     BaseType_t xHigherPriorityTaskWoken = pdFALSE;
  48:Core/Src/Drivers/Src/usart.c **** 
  49:Core/Src/Drivers/Src/usart.c ****     if(huart->Instance == USART2) {
  50:Core/Src/Drivers/Src/usart.c ****         static const Event motor_sended_event = { COMMAND_SENDED_SIG };
  51:Core/Src/Drivers/Src/usart.c ****         AO_Motor->postFromISR(AO_Motor, &motor_sended_event, &xHigherPriorityTaskWoken);
  52:Core/Src/Drivers/Src/usart.c ****     }
  53:Core/Src/Drivers/Src/usart.c ****     else if(huart->Instance == USART3) {
  54:Core/Src/Drivers/Src/usart.c ****         static const Event sensor_event = { SENSOR_SENDED_SIG };
  55:Core/Src/Drivers/Src/usart.c ****         AO_Computer->postFromISR(AO_Computer, &sensor_event, &xHigherPriorityTaskWoken);      
  56:Core/Src/Drivers/Src/usart.c ****     }
  57:Core/Src/Drivers/Src/usart.c **** 
  58:Core/Src/Drivers/Src/usart.c ****     portEND_SWITCHING_ISR(xHigherPriorityTaskWoken);
  59:Core/Src/Drivers/Src/usart.c **** }
  60:Core/Src/Drivers/Src/usart.c **** 
  61:Core/Src/Drivers/Src/usart.c **** /**
  62:Core/Src/Drivers/Src/usart.c ****   * @brief This function will be called if number of 
  63:Core/Src/Drivers/Src/usart.c ****   * recived bytes equal data Size declared in HAL_UART_Receive_IT.
  64:Core/Src/Drivers/Src/usart.c ****   */
  65:Core/Src/Drivers/Src/usart.c **** void HAL_UART_RxCpltCallback(UART_HandleTypeDef *huart)
  66:Core/Src/Drivers/Src/usart.c **** {
  67:Core/Src/Drivers/Src/usart.c ****     BaseType_t xHigherPriorityTaskWoken = pdFALSE;
  68:Core/Src/Drivers/Src/usart.c **** 
  69:Core/Src/Drivers/Src/usart.c ****     if(huart->Instance == USART3) {
  70:Core/Src/Drivers/Src/usart.c ****         static RecivedMessage recived_message = { .length = 0 }; 
  71:Core/Src/Drivers/Src/usart.c ****         static uint8_t is_data_comming = 0;
  72:Core/Src/Drivers/Src/usart.c ****         static char byte_data;
  73:Core/Src/Drivers/Src/usart.c ****         static const uint8_t max_length = 4;
  74:Core/Src/Drivers/Src/usart.c ****         byte_data = rx_byte_data; 
  75:Core/Src/Drivers/Src/usart.c ****     
  76:Core/Src/Drivers/Src/usart.c ****         if(is_data_comming == 1) { /* Have recived 'S' */
  77:Core/Src/Drivers/Src/usart.c ****             
  78:Core/Src/Drivers/Src/usart.c ****             if(byte_data != 'S' && byte_data != 10) { /* Not 'S' and '\n' */
  79:Core/Src/Drivers/Src/usart.c ****                 recived_message.message[recived_message.length] = byte_data;
  80:Core/Src/Drivers/Src/usart.c ****                 recived_message.length++;
  81:Core/Src/Drivers/Src/usart.c ****                 if(recived_message.length > max_length) {
  82:Core/Src/Drivers/Src/usart.c ****                     recived_message.length = 0;
  83:Core/Src/Drivers/Src/usart.c ****                     is_data_comming = 0;
  84:Core/Src/Drivers/Src/usart.c ****                 }
  85:Core/Src/Drivers/Src/usart.c ****             }
  86:Core/Src/Drivers/Src/usart.c ****             else if(byte_data == 10)  { /* End of Line '\n' */
  87:Core/Src/Drivers/Src/usart.c ****                 static PWC pulse_width_command;
  88:Core/Src/Drivers/Src/usart.c ****                 static int16_t d;
  89:Core/Src/Drivers/Src/usart.c ****                 static const Event pwc_evt = {PWC_TRIGGER_SIG};
  90:Core/Src/Drivers/Src/usart.c ****                 d = ExtractMessage(&recived_message);
  91:Core/Src/Drivers/Src/usart.c ****                 pulse_width_command.d = d;
  92:Core/Src/Drivers/Src/usart.c ****                 xQueueOverwriteFromISR(motor->pwc_sub, &pulse_width_command, &xHigherPriorityTaskWo
ARM GAS  C:\Users\Lamp\AppData\Local\Temp\ccGE2Sfq.s 			page 5


  93:Core/Src/Drivers/Src/usart.c ****                 AO_Motor->postFromISR(AO_Motor, &pwc_evt, &xHigherPriorityTaskWoken);
  94:Core/Src/Drivers/Src/usart.c ****                 recived_message.length = 0;
  95:Core/Src/Drivers/Src/usart.c ****                 is_data_comming = 0;
  96:Core/Src/Drivers/Src/usart.c ****             }
  97:Core/Src/Drivers/Src/usart.c ****         }
  98:Core/Src/Drivers/Src/usart.c ****         else {
  99:Core/Src/Drivers/Src/usart.c ****             if(byte_data == 'S') { /* Witnessed double 'S' */
 100:Core/Src/Drivers/Src/usart.c ****                 if(recived_message.length != 0) recived_message.length = 0;
 101:Core/Src/Drivers/Src/usart.c ****                 is_data_comming = 1;
 102:Core/Src/Drivers/Src/usart.c ****             }          
 103:Core/Src/Drivers/Src/usart.c ****         }
 104:Core/Src/Drivers/Src/usart.c **** 
 105:Core/Src/Drivers/Src/usart.c ****         /*Enable Rx Interrupt, waiting for new byte data*/
 106:Core/Src/Drivers/Src/usart.c ****         HAL_UART_Receive_IT(huart, &rx_byte_data, 1);
 107:Core/Src/Drivers/Src/usart.c ****     }
 108:Core/Src/Drivers/Src/usart.c **** 
 109:Core/Src/Drivers/Src/usart.c ****     portEND_SWITCHING_ISR(xHigherPriorityTaskWoken);
 110:Core/Src/Drivers/Src/usart.c **** }
 111:Core/Src/Drivers/Src/usart.c **** 
 112:Core/Src/Drivers/Src/usart.c **** 
 113:Core/Src/Drivers/Src/usart.c **** static void UART_Init(UART_HandleTypeDef* huart);
 114:Core/Src/Drivers/Src/usart.c **** 
 115:Core/Src/Drivers/Src/usart.c **** /**
 116:Core/Src/Drivers/Src/usart.c ****   * @brief This function initialize USART1.
 117:Core/Src/Drivers/Src/usart.c ****   */
 118:Core/Src/Drivers/Src/usart.c **** void Driver_USART_Init()
 119:Core/Src/Drivers/Src/usart.c **** {
 120:Core/Src/Drivers/Src/usart.c ****     huart2.Instance = USART2;
 121:Core/Src/Drivers/Src/usart.c ****     huart3.Instance = USART3;
 122:Core/Src/Drivers/Src/usart.c ****     UART_Init(&huart2);
 123:Core/Src/Drivers/Src/usart.c ****     UART_Init(&huart3);
 124:Core/Src/Drivers/Src/usart.c **** }
 125:Core/Src/Drivers/Src/usart.c **** 
 126:Core/Src/Drivers/Src/usart.c **** void HAL_UART_MspInit(UART_HandleTypeDef* huart)
 127:Core/Src/Drivers/Src/usart.c **** {
 128:Core/Src/Drivers/Src/usart.c ****     GPIO_InitTypeDef GPIO_InitStruct = {0};
 129:Core/Src/Drivers/Src/usart.c ****     if(huart->Instance==USART2)
 130:Core/Src/Drivers/Src/usart.c ****     {
 131:Core/Src/Drivers/Src/usart.c ****         /* Peripheral clock enable */
 132:Core/Src/Drivers/Src/usart.c ****         __HAL_RCC_USART2_CLK_ENABLE();
 133:Core/Src/Drivers/Src/usart.c ****         __HAL_RCC_GPIOA_CLK_ENABLE();
 134:Core/Src/Drivers/Src/usart.c ****         
 135:Core/Src/Drivers/Src/usart.c ****         /** USART2 GPIO Configuration
 136:Core/Src/Drivers/Src/usart.c ****          * PA2     ------> USART2_TX
 137:Core/Src/Drivers/Src/usart.c ****          * PA3     ------> USART2_RX
 138:Core/Src/Drivers/Src/usart.c ****          */
 139:Core/Src/Drivers/Src/usart.c ****         GPIO_InitStruct.Pin = GPIO_PIN_2|GPIO_PIN_3;
 140:Core/Src/Drivers/Src/usart.c ****         GPIO_InitStruct.Mode = GPIO_MODE_AF_PP;
 141:Core/Src/Drivers/Src/usart.c ****         GPIO_InitStruct.Pull = GPIO_NOPULL;
 142:Core/Src/Drivers/Src/usart.c ****         GPIO_InitStruct.Speed = GPIO_SPEED_FREQ_VERY_HIGH;
 143:Core/Src/Drivers/Src/usart.c ****         GPIO_InitStruct.Alternate = GPIO_AF7_USART2;
 144:Core/Src/Drivers/Src/usart.c ****         HAL_GPIO_Init(GPIOA, &GPIO_InitStruct);
 145:Core/Src/Drivers/Src/usart.c **** 
 146:Core/Src/Drivers/Src/usart.c ****         /* USART1 interrupt Init */
 147:Core/Src/Drivers/Src/usart.c ****         HAL_NVIC_SetPriority(USART2_IRQn, 9, 0);
 148:Core/Src/Drivers/Src/usart.c ****         HAL_NVIC_EnableIRQ(USART2_IRQn);
 149:Core/Src/Drivers/Src/usart.c ****     }
ARM GAS  C:\Users\Lamp\AppData\Local\Temp\ccGE2Sfq.s 			page 6


 150:Core/Src/Drivers/Src/usart.c ****     else if(huart->Instance==USART3)
 151:Core/Src/Drivers/Src/usart.c ****     {
 152:Core/Src/Drivers/Src/usart.c ****         /* Peripheral clock enable */
 153:Core/Src/Drivers/Src/usart.c ****         __HAL_RCC_USART3_CLK_ENABLE();
 154:Core/Src/Drivers/Src/usart.c ****         __HAL_RCC_GPIOB_CLK_ENABLE();
 155:Core/Src/Drivers/Src/usart.c **** 
 156:Core/Src/Drivers/Src/usart.c ****         /** USART3 GPIO Configuration
 157:Core/Src/Drivers/Src/usart.c ****          * PB10     ------> USART3_TX
 158:Core/Src/Drivers/Src/usart.c ****          * PB11     ------> USART3_RX
 159:Core/Src/Drivers/Src/usart.c ****          */
 160:Core/Src/Drivers/Src/usart.c ****         GPIO_InitStruct.Pin = GPIO_PIN_10|GPIO_PIN_11;
 161:Core/Src/Drivers/Src/usart.c ****         GPIO_InitStruct.Mode = GPIO_MODE_AF_PP;
 162:Core/Src/Drivers/Src/usart.c ****         GPIO_InitStruct.Pull = GPIO_NOPULL;
 163:Core/Src/Drivers/Src/usart.c ****         GPIO_InitStruct.Speed = GPIO_SPEED_FREQ_VERY_HIGH;
 164:Core/Src/Drivers/Src/usart.c ****         GPIO_InitStruct.Alternate = GPIO_AF7_USART3;
 165:Core/Src/Drivers/Src/usart.c ****         HAL_GPIO_Init(GPIOB, &GPIO_InitStruct);
 166:Core/Src/Drivers/Src/usart.c **** 
 167:Core/Src/Drivers/Src/usart.c ****         /* USART3 interrupt Init */
 168:Core/Src/Drivers/Src/usart.c ****         HAL_NVIC_SetPriority(USART3_IRQn, 10, 0);
 169:Core/Src/Drivers/Src/usart.c ****         HAL_NVIC_EnableIRQ(USART3_IRQn);
 170:Core/Src/Drivers/Src/usart.c ****     }
 171:Core/Src/Drivers/Src/usart.c **** }
 172:Core/Src/Drivers/Src/usart.c **** 
 173:Core/Src/Drivers/Src/usart.c **** static void UART_Init(UART_HandleTypeDef* huart)
 174:Core/Src/Drivers/Src/usart.c **** {
 133              		.loc 1 174 1 is_stmt 1 view -0
 134              		.cfi_startproc
 135              		@ args = 0, pretend = 0, frame = 0
 136              		@ frame_needed = 0, uses_anonymous_args = 0
 137              		.loc 1 174 1 is_stmt 0 view .LVU35
 138 0000 08B5     		push	{r3, lr}
 139              	.LCFI1:
 140              		.cfi_def_cfa_offset 8
 141              		.cfi_offset 3, -8
 142              		.cfi_offset 14, -4
 175:Core/Src/Drivers/Src/usart.c **** 
 176:Core/Src/Drivers/Src/usart.c ****     /**
 177:Core/Src/Drivers/Src/usart.c ****      * Feature: Send signal control to Driver CC-SMART MSD_E20
 178:Core/Src/Drivers/Src/usart.c ****      */
 179:Core/Src/Drivers/Src/usart.c ****     if(huart->Instance == USART2)
 143              		.loc 1 179 5 is_stmt 1 view .LVU36
 144              		.loc 1 179 13 is_stmt 0 view .LVU37
 145 0002 0368     		ldr	r3, [r0]
 146              		.loc 1 179 7 view .LVU38
 147 0004 104A     		ldr	r2, .L16
 148 0006 9342     		cmp	r3, r2
 149 0008 03D0     		beq	.L14
 180:Core/Src/Drivers/Src/usart.c ****     {
 181:Core/Src/Drivers/Src/usart.c ****         huart->Init.BaudRate = 115200;
 182:Core/Src/Drivers/Src/usart.c ****         huart->Init.WordLength = UART_WORDLENGTH_8B;
 183:Core/Src/Drivers/Src/usart.c ****         huart->Init.StopBits = UART_STOPBITS_1;
 184:Core/Src/Drivers/Src/usart.c ****         huart->Init.Parity = UART_PARITY_NONE;
 185:Core/Src/Drivers/Src/usart.c ****         huart->Init.Mode = UART_MODE_TX_RX;
 186:Core/Src/Drivers/Src/usart.c ****         huart->Init.HwFlowCtl = UART_HWCONTROL_NONE;
 187:Core/Src/Drivers/Src/usart.c ****         huart->Init.OverSampling = UART_OVERSAMPLING_16;
 188:Core/Src/Drivers/Src/usart.c ****         HAL_UART_Init(huart);
 189:Core/Src/Drivers/Src/usart.c ****     }
ARM GAS  C:\Users\Lamp\AppData\Local\Temp\ccGE2Sfq.s 			page 7


 190:Core/Src/Drivers/Src/usart.c **** 
 191:Core/Src/Drivers/Src/usart.c ****     /**
 192:Core/Src/Drivers/Src/usart.c ****      * Feature: Communicate with Matlab
 193:Core/Src/Drivers/Src/usart.c ****      */
 194:Core/Src/Drivers/Src/usart.c ****     else if(huart->Instance == USART3)
 150              		.loc 1 194 10 is_stmt 1 view .LVU39
 151              		.loc 1 194 12 is_stmt 0 view .LVU40
 152 000a 104A     		ldr	r2, .L16+4
 153 000c 9342     		cmp	r3, r2
 154 000e 0ED0     		beq	.L15
 155              	.LVL14:
 156              	.L10:
 195:Core/Src/Drivers/Src/usart.c ****     {
 196:Core/Src/Drivers/Src/usart.c ****         huart->Init.BaudRate = 576000;
 197:Core/Src/Drivers/Src/usart.c ****         huart->Init.WordLength = UART_WORDLENGTH_8B;
 198:Core/Src/Drivers/Src/usart.c ****         huart->Init.StopBits = UART_STOPBITS_1;
 199:Core/Src/Drivers/Src/usart.c ****         huart->Init.Parity = UART_PARITY_NONE;
 200:Core/Src/Drivers/Src/usart.c ****         huart->Init.Mode = UART_MODE_TX_RX;
 201:Core/Src/Drivers/Src/usart.c ****         huart->Init.HwFlowCtl = UART_HWCONTROL_NONE;
 202:Core/Src/Drivers/Src/usart.c ****         huart->Init.OverSampling = UART_OVERSAMPLING_16;
 203:Core/Src/Drivers/Src/usart.c ****         HAL_UART_Init(huart);
 204:Core/Src/Drivers/Src/usart.c ****     }
 205:Core/Src/Drivers/Src/usart.c **** }
 157              		.loc 1 205 1 view .LVU41
 158 0010 08BD     		pop	{r3, pc}
 159              	.LVL15:
 160              	.L14:
 181:Core/Src/Drivers/Src/usart.c ****         huart->Init.WordLength = UART_WORDLENGTH_8B;
 161              		.loc 1 181 9 is_stmt 1 view .LVU42
 181:Core/Src/Drivers/Src/usart.c ****         huart->Init.WordLength = UART_WORDLENGTH_8B;
 162              		.loc 1 181 30 is_stmt 0 view .LVU43
 163 0012 4FF4E133 		mov	r3, #115200
 164 0016 4360     		str	r3, [r0, #4]
 182:Core/Src/Drivers/Src/usart.c ****         huart->Init.StopBits = UART_STOPBITS_1;
 165              		.loc 1 182 9 is_stmt 1 view .LVU44
 182:Core/Src/Drivers/Src/usart.c ****         huart->Init.StopBits = UART_STOPBITS_1;
 166              		.loc 1 182 32 is_stmt 0 view .LVU45
 167 0018 0023     		movs	r3, #0
 168 001a 8360     		str	r3, [r0, #8]
 183:Core/Src/Drivers/Src/usart.c ****         huart->Init.Parity = UART_PARITY_NONE;
 169              		.loc 1 183 9 is_stmt 1 view .LVU46
 183:Core/Src/Drivers/Src/usart.c ****         huart->Init.Parity = UART_PARITY_NONE;
 170              		.loc 1 183 30 is_stmt 0 view .LVU47
 171 001c C360     		str	r3, [r0, #12]
 184:Core/Src/Drivers/Src/usart.c ****         huart->Init.Mode = UART_MODE_TX_RX;
 172              		.loc 1 184 9 is_stmt 1 view .LVU48
 184:Core/Src/Drivers/Src/usart.c ****         huart->Init.Mode = UART_MODE_TX_RX;
 173              		.loc 1 184 28 is_stmt 0 view .LVU49
 174 001e 0361     		str	r3, [r0, #16]
 185:Core/Src/Drivers/Src/usart.c ****         huart->Init.HwFlowCtl = UART_HWCONTROL_NONE;
 175              		.loc 1 185 9 is_stmt 1 view .LVU50
 185:Core/Src/Drivers/Src/usart.c ****         huart->Init.HwFlowCtl = UART_HWCONTROL_NONE;
 176              		.loc 1 185 26 is_stmt 0 view .LVU51
 177 0020 0C22     		movs	r2, #12
 178 0022 4261     		str	r2, [r0, #20]
 186:Core/Src/Drivers/Src/usart.c ****         huart->Init.OverSampling = UART_OVERSAMPLING_16;
 179              		.loc 1 186 9 is_stmt 1 view .LVU52
ARM GAS  C:\Users\Lamp\AppData\Local\Temp\ccGE2Sfq.s 			page 8


 186:Core/Src/Drivers/Src/usart.c ****         huart->Init.OverSampling = UART_OVERSAMPLING_16;
 180              		.loc 1 186 31 is_stmt 0 view .LVU53
 181 0024 8361     		str	r3, [r0, #24]
 187:Core/Src/Drivers/Src/usart.c ****         HAL_UART_Init(huart);
 182              		.loc 1 187 9 is_stmt 1 view .LVU54
 187:Core/Src/Drivers/Src/usart.c ****         HAL_UART_Init(huart);
 183              		.loc 1 187 34 is_stmt 0 view .LVU55
 184 0026 C361     		str	r3, [r0, #28]
 188:Core/Src/Drivers/Src/usart.c ****     }
 185              		.loc 1 188 9 is_stmt 1 view .LVU56
 186 0028 FFF7FEFF 		bl	HAL_UART_Init
 187              	.LVL16:
 188:Core/Src/Drivers/Src/usart.c ****     }
 188              		.loc 1 188 9 is_stmt 0 view .LVU57
 189 002c F0E7     		b	.L10
 190              	.LVL17:
 191              	.L15:
 196:Core/Src/Drivers/Src/usart.c ****         huart->Init.WordLength = UART_WORDLENGTH_8B;
 192              		.loc 1 196 9 is_stmt 1 view .LVU58
 196:Core/Src/Drivers/Src/usart.c ****         huart->Init.WordLength = UART_WORDLENGTH_8B;
 193              		.loc 1 196 30 is_stmt 0 view .LVU59
 194 002e 084B     		ldr	r3, .L16+8
 195 0030 4360     		str	r3, [r0, #4]
 197:Core/Src/Drivers/Src/usart.c ****         huart->Init.StopBits = UART_STOPBITS_1;
 196              		.loc 1 197 9 is_stmt 1 view .LVU60
 197:Core/Src/Drivers/Src/usart.c ****         huart->Init.StopBits = UART_STOPBITS_1;
 197              		.loc 1 197 32 is_stmt 0 view .LVU61
 198 0032 0023     		movs	r3, #0
 199 0034 8360     		str	r3, [r0, #8]
 198:Core/Src/Drivers/Src/usart.c ****         huart->Init.Parity = UART_PARITY_NONE;
 200              		.loc 1 198 9 is_stmt 1 view .LVU62
 198:Core/Src/Drivers/Src/usart.c ****         huart->Init.Parity = UART_PARITY_NONE;
 201              		.loc 1 198 30 is_stmt 0 view .LVU63
 202 0036 C360     		str	r3, [r0, #12]
 199:Core/Src/Drivers/Src/usart.c ****         huart->Init.Mode = UART_MODE_TX_RX;
 203              		.loc 1 199 9 is_stmt 1 view .LVU64
 199:Core/Src/Drivers/Src/usart.c ****         huart->Init.Mode = UART_MODE_TX_RX;
 204              		.loc 1 199 28 is_stmt 0 view .LVU65
 205 0038 0361     		str	r3, [r0, #16]
 200:Core/Src/Drivers/Src/usart.c ****         huart->Init.HwFlowCtl = UART_HWCONTROL_NONE;
 206              		.loc 1 200 9 is_stmt 1 view .LVU66
 200:Core/Src/Drivers/Src/usart.c ****         huart->Init.HwFlowCtl = UART_HWCONTROL_NONE;
 207              		.loc 1 200 26 is_stmt 0 view .LVU67
 208 003a 0C22     		movs	r2, #12
 209 003c 4261     		str	r2, [r0, #20]
 201:Core/Src/Drivers/Src/usart.c ****         huart->Init.OverSampling = UART_OVERSAMPLING_16;
 210              		.loc 1 201 9 is_stmt 1 view .LVU68
 201:Core/Src/Drivers/Src/usart.c ****         huart->Init.OverSampling = UART_OVERSAMPLING_16;
 211              		.loc 1 201 31 is_stmt 0 view .LVU69
 212 003e 8361     		str	r3, [r0, #24]
 202:Core/Src/Drivers/Src/usart.c ****         HAL_UART_Init(huart);
 213              		.loc 1 202 9 is_stmt 1 view .LVU70
 202:Core/Src/Drivers/Src/usart.c ****         HAL_UART_Init(huart);
 214              		.loc 1 202 34 is_stmt 0 view .LVU71
 215 0040 C361     		str	r3, [r0, #28]
 203:Core/Src/Drivers/Src/usart.c ****     }
 216              		.loc 1 203 9 is_stmt 1 view .LVU72
ARM GAS  C:\Users\Lamp\AppData\Local\Temp\ccGE2Sfq.s 			page 9


 217 0042 FFF7FEFF 		bl	HAL_UART_Init
 218              	.LVL18:
 219              		.loc 1 205 1 is_stmt 0 view .LVU73
 220 0046 E3E7     		b	.L10
 221              	.L17:
 222              		.align	2
 223              	.L16:
 224 0048 00440040 		.word	1073759232
 225 004c 00480040 		.word	1073760256
 226 0050 00CA0800 		.word	576000
 227              		.cfi_endproc
 228              	.LFE180:
 230              		.section	.text.HAL_UART_TxCpltCallback,"ax",%progbits
 231              		.align	1
 232              		.global	HAL_UART_TxCpltCallback
 233              		.syntax unified
 234              		.thumb
 235              		.thumb_func
 237              	HAL_UART_TxCpltCallback:
 238              	.LVL19:
 239              	.LFB176:
  46:Core/Src/Drivers/Src/usart.c ****     BaseType_t xHigherPriorityTaskWoken = pdFALSE;
 240              		.loc 1 46 1 is_stmt 1 view -0
 241              		.cfi_startproc
 242              		@ args = 0, pretend = 0, frame = 8
 243              		@ frame_needed = 0, uses_anonymous_args = 0
  46:Core/Src/Drivers/Src/usart.c ****     BaseType_t xHigherPriorityTaskWoken = pdFALSE;
 244              		.loc 1 46 1 is_stmt 0 view .LVU75
 245 0000 00B5     		push	{lr}
 246              	.LCFI2:
 247              		.cfi_def_cfa_offset 4
 248              		.cfi_offset 14, -4
 249 0002 83B0     		sub	sp, sp, #12
 250              	.LCFI3:
 251              		.cfi_def_cfa_offset 16
  47:Core/Src/Drivers/Src/usart.c **** 
 252              		.loc 1 47 5 is_stmt 1 view .LVU76
  47:Core/Src/Drivers/Src/usart.c **** 
 253              		.loc 1 47 16 is_stmt 0 view .LVU77
 254 0004 0023     		movs	r3, #0
 255 0006 0193     		str	r3, [sp, #4]
  49:Core/Src/Drivers/Src/usart.c ****         static const Event motor_sended_event = { COMMAND_SENDED_SIG };
 256              		.loc 1 49 5 is_stmt 1 view .LVU78
  49:Core/Src/Drivers/Src/usart.c ****         static const Event motor_sended_event = { COMMAND_SENDED_SIG };
 257              		.loc 1 49 13 is_stmt 0 view .LVU79
 258 0008 0368     		ldr	r3, [r0]
  49:Core/Src/Drivers/Src/usart.c ****         static const Event motor_sended_event = { COMMAND_SENDED_SIG };
 259              		.loc 1 49 7 view .LVU80
 260 000a 124A     		ldr	r2, .L25
 261 000c 9342     		cmp	r3, r2
 262 000e 11D0     		beq	.L23
  53:Core/Src/Drivers/Src/usart.c ****         static const Event sensor_event = { SENSOR_SENDED_SIG };
 263              		.loc 1 53 10 is_stmt 1 view .LVU81
  53:Core/Src/Drivers/Src/usart.c ****         static const Event sensor_event = { SENSOR_SENDED_SIG };
 264              		.loc 1 53 12 is_stmt 0 view .LVU82
 265 0010 114A     		ldr	r2, .L25+4
 266 0012 9342     		cmp	r3, r2
ARM GAS  C:\Users\Lamp\AppData\Local\Temp\ccGE2Sfq.s 			page 10


 267 0014 16D0     		beq	.L24
 268              	.LVL20:
 269              	.L20:
  58:Core/Src/Drivers/Src/usart.c **** }
 270              		.loc 1 58 5 is_stmt 1 view .LVU83
  58:Core/Src/Drivers/Src/usart.c **** }
 271              		.loc 1 58 5 view .LVU84
 272 0016 019B     		ldr	r3, [sp, #4]
 273 0018 4BB1     		cbz	r3, .L18
  58:Core/Src/Drivers/Src/usart.c **** }
 274              		.loc 1 58 5 discriminator 1 view .LVU85
 275 001a 4FF0E023 		mov	r3, #-536813568
 276 001e 4FF08052 		mov	r2, #268435456
 277 0022 C3F8042D 		str	r2, [r3, #3332]
  58:Core/Src/Drivers/Src/usart.c **** }
 278              		.loc 1 58 5 discriminator 1 view .LVU86
 279              		.syntax unified
 280              	@ 58 "Core/Src/Drivers/Src/usart.c" 1
 281 0026 BFF34F8F 		dsb
 282              	@ 0 "" 2
  58:Core/Src/Drivers/Src/usart.c **** }
 283              		.loc 1 58 5 discriminator 1 view .LVU87
 284              	@ 58 "Core/Src/Drivers/Src/usart.c" 1
 285 002a BFF36F8F 		isb
 286              	@ 0 "" 2
  58:Core/Src/Drivers/Src/usart.c **** }
 287              		.loc 1 58 5 discriminator 3 view .LVU88
  58:Core/Src/Drivers/Src/usart.c **** }
 288              		.loc 1 58 5 discriminator 3 view .LVU89
 289              		.thumb
 290              		.syntax unified
 291              	.L18:
  59:Core/Src/Drivers/Src/usart.c **** 
 292              		.loc 1 59 1 is_stmt 0 view .LVU90
 293 002e 03B0     		add	sp, sp, #12
 294              	.LCFI4:
 295              		.cfi_remember_state
 296              		.cfi_def_cfa_offset 4
 297              		@ sp needed
 298 0030 5DF804FB 		ldr	pc, [sp], #4
 299              	.LVL21:
 300              	.L23:
 301              	.LCFI5:
 302              		.cfi_restore_state
 303              	.LBB4:
  50:Core/Src/Drivers/Src/usart.c ****         AO_Motor->postFromISR(AO_Motor, &motor_sended_event, &xHigherPriorityTaskWoken);
 304              		.loc 1 50 9 is_stmt 1 view .LVU91
  51:Core/Src/Drivers/Src/usart.c ****     }
 305              		.loc 1 51 9 view .LVU92
  51:Core/Src/Drivers/Src/usart.c ****     }
 306              		.loc 1 51 17 is_stmt 0 view .LVU93
 307 0034 094B     		ldr	r3, .L25+8
 308 0036 1868     		ldr	r0, [r3]
 309              	.LVL22:
  51:Core/Src/Drivers/Src/usart.c ****     }
 310              		.loc 1 51 17 view .LVU94
 311 0038 D0F8C830 		ldr	r3, [r0, #200]
ARM GAS  C:\Users\Lamp\AppData\Local\Temp\ccGE2Sfq.s 			page 11


  51:Core/Src/Drivers/Src/usart.c ****     }
 312              		.loc 1 51 9 view .LVU95
 313 003c 01AA     		add	r2, sp, #4
 314 003e 0849     		ldr	r1, .L25+12
 315 0040 9847     		blx	r3
 316              	.LVL23:
 317              	.LBE4:
 318 0042 E8E7     		b	.L20
 319              	.LVL24:
 320              	.L24:
 321              	.LBB5:
  54:Core/Src/Drivers/Src/usart.c ****         AO_Computer->postFromISR(AO_Computer, &sensor_event, &xHigherPriorityTaskWoken);      
 322              		.loc 1 54 9 is_stmt 1 view .LVU96
  55:Core/Src/Drivers/Src/usart.c ****     }
 323              		.loc 1 55 9 view .LVU97
  55:Core/Src/Drivers/Src/usart.c ****     }
 324              		.loc 1 55 20 is_stmt 0 view .LVU98
 325 0044 074B     		ldr	r3, .L25+16
 326 0046 1868     		ldr	r0, [r3]
 327              	.LVL25:
  55:Core/Src/Drivers/Src/usart.c ****     }
 328              		.loc 1 55 20 view .LVU99
 329 0048 D0F8C830 		ldr	r3, [r0, #200]
  55:Core/Src/Drivers/Src/usart.c ****     }
 330              		.loc 1 55 9 view .LVU100
 331 004c 01AA     		add	r2, sp, #4
 332 004e 0649     		ldr	r1, .L25+20
 333 0050 9847     		blx	r3
 334              	.LVL26:
 335 0052 E0E7     		b	.L20
 336              	.L26:
 337              		.align	2
 338              	.L25:
 339 0054 00440040 		.word	1073759232
 340 0058 00480040 		.word	1073760256
 341 005c 00000000 		.word	AO_Motor
 342 0060 00000000 		.word	motor_sended_event.7
 343 0064 00000000 		.word	AO_Computer
 344 0068 00000000 		.word	sensor_event.6
 345              	.LBE5:
 346              		.cfi_endproc
 347              	.LFE176:
 349              		.section	.text.HAL_UART_RxCpltCallback,"ax",%progbits
 350              		.align	1
 351              		.global	HAL_UART_RxCpltCallback
 352              		.syntax unified
 353              		.thumb
 354              		.thumb_func
 356              	HAL_UART_RxCpltCallback:
 357              	.LVL27:
 358              	.LFB177:
  66:Core/Src/Drivers/Src/usart.c ****     BaseType_t xHigherPriorityTaskWoken = pdFALSE;
 359              		.loc 1 66 1 is_stmt 1 view -0
 360              		.cfi_startproc
 361              		@ args = 0, pretend = 0, frame = 8
 362              		@ frame_needed = 0, uses_anonymous_args = 0
  66:Core/Src/Drivers/Src/usart.c ****     BaseType_t xHigherPriorityTaskWoken = pdFALSE;
ARM GAS  C:\Users\Lamp\AppData\Local\Temp\ccGE2Sfq.s 			page 12


 363              		.loc 1 66 1 is_stmt 0 view .LVU102
 364 0000 30B5     		push	{r4, r5, lr}
 365              	.LCFI6:
 366              		.cfi_def_cfa_offset 12
 367              		.cfi_offset 4, -12
 368              		.cfi_offset 5, -8
 369              		.cfi_offset 14, -4
 370 0002 83B0     		sub	sp, sp, #12
 371              	.LCFI7:
 372              		.cfi_def_cfa_offset 24
  67:Core/Src/Drivers/Src/usart.c **** 
 373              		.loc 1 67 5 is_stmt 1 view .LVU103
  67:Core/Src/Drivers/Src/usart.c **** 
 374              		.loc 1 67 16 is_stmt 0 view .LVU104
 375 0004 0023     		movs	r3, #0
 376 0006 0193     		str	r3, [sp, #4]
  69:Core/Src/Drivers/Src/usart.c ****         static RecivedMessage recived_message = { .length = 0 }; 
 377              		.loc 1 69 5 is_stmt 1 view .LVU105
  69:Core/Src/Drivers/Src/usart.c ****         static RecivedMessage recived_message = { .length = 0 }; 
 378              		.loc 1 69 13 is_stmt 0 view .LVU106
 379 0008 0268     		ldr	r2, [r0]
  69:Core/Src/Drivers/Src/usart.c ****         static RecivedMessage recived_message = { .length = 0 }; 
 380              		.loc 1 69 7 view .LVU107
 381 000a 2D4B     		ldr	r3, .L38
 382 000c 9A42     		cmp	r2, r3
 383 000e 0DD0     		beq	.L35
 384              	.LVL28:
 385              	.L28:
 109:Core/Src/Drivers/Src/usart.c **** }
 386              		.loc 1 109 5 is_stmt 1 view .LVU108
 109:Core/Src/Drivers/Src/usart.c **** }
 387              		.loc 1 109 5 view .LVU109
 388 0010 019B     		ldr	r3, [sp, #4]
 389 0012 4BB1     		cbz	r3, .L27
 109:Core/Src/Drivers/Src/usart.c **** }
 390              		.loc 1 109 5 discriminator 1 view .LVU110
 391 0014 4FF0E023 		mov	r3, #-536813568
 392 0018 4FF08052 		mov	r2, #268435456
 393 001c C3F8042D 		str	r2, [r3, #3332]
 109:Core/Src/Drivers/Src/usart.c **** }
 394              		.loc 1 109 5 discriminator 1 view .LVU111
 395              		.syntax unified
 396              	@ 109 "Core/Src/Drivers/Src/usart.c" 1
 397 0020 BFF34F8F 		dsb
 398              	@ 0 "" 2
 109:Core/Src/Drivers/Src/usart.c **** }
 399              		.loc 1 109 5 discriminator 1 view .LVU112
 400              	@ 109 "Core/Src/Drivers/Src/usart.c" 1
 401 0024 BFF36F8F 		isb
 402              	@ 0 "" 2
 109:Core/Src/Drivers/Src/usart.c **** }
 403              		.loc 1 109 5 discriminator 3 view .LVU113
 109:Core/Src/Drivers/Src/usart.c **** }
 404              		.loc 1 109 5 discriminator 3 view .LVU114
 405              		.thumb
 406              		.syntax unified
 407              	.L27:
ARM GAS  C:\Users\Lamp\AppData\Local\Temp\ccGE2Sfq.s 			page 13


 110:Core/Src/Drivers/Src/usart.c **** 
 408              		.loc 1 110 1 is_stmt 0 view .LVU115
 409 0028 03B0     		add	sp, sp, #12
 410              	.LCFI8:
 411              		.cfi_remember_state
 412              		.cfi_def_cfa_offset 12
 413              		@ sp needed
 414 002a 30BD     		pop	{r4, r5, pc}
 415              	.LVL29:
 416              	.L35:
 417              	.LCFI9:
 418              		.cfi_restore_state
 110:Core/Src/Drivers/Src/usart.c **** 
 419              		.loc 1 110 1 view .LVU116
 420 002c 0446     		mov	r4, r0
 421              	.LBB6:
  70:Core/Src/Drivers/Src/usart.c ****         static uint8_t is_data_comming = 0;
 422              		.loc 1 70 9 is_stmt 1 view .LVU117
  71:Core/Src/Drivers/Src/usart.c ****         static char byte_data;
 423              		.loc 1 71 9 view .LVU118
  72:Core/Src/Drivers/Src/usart.c ****         static const uint8_t max_length = 4;
 424              		.loc 1 72 9 view .LVU119
  73:Core/Src/Drivers/Src/usart.c ****         byte_data = rx_byte_data; 
 425              		.loc 1 73 9 view .LVU120
  74:Core/Src/Drivers/Src/usart.c ****     
 426              		.loc 1 74 9 view .LVU121
  74:Core/Src/Drivers/Src/usart.c ****     
 427              		.loc 1 74 19 is_stmt 0 view .LVU122
 428 002e 254B     		ldr	r3, .L38+4
 429 0030 1B78     		ldrb	r3, [r3]	@ zero_extendqisi2
 430 0032 254A     		ldr	r2, .L38+8
 431 0034 1370     		strb	r3, [r2]
  76:Core/Src/Drivers/Src/usart.c ****             
 432              		.loc 1 76 9 is_stmt 1 view .LVU123
  76:Core/Src/Drivers/Src/usart.c ****             
 433              		.loc 1 76 28 is_stmt 0 view .LVU124
 434 0036 254A     		ldr	r2, .L38+12
 435 0038 1278     		ldrb	r2, [r2]	@ zero_extendqisi2
  76:Core/Src/Drivers/Src/usart.c ****             
 436              		.loc 1 76 11 view .LVU125
 437 003a 012A     		cmp	r2, #1
 438 003c 07D0     		beq	.L36
  99:Core/Src/Drivers/Src/usart.c ****                 if(recived_message.length != 0) recived_message.length = 0;
 439              		.loc 1 99 13 is_stmt 1 view .LVU126
  99:Core/Src/Drivers/Src/usart.c ****                 if(recived_message.length != 0) recived_message.length = 0;
 440              		.loc 1 99 15 is_stmt 0 view .LVU127
 441 003e 532B     		cmp	r3, #83
 442 0040 34D0     		beq	.L37
 443              	.LVL30:
 444              	.L31:
 106:Core/Src/Drivers/Src/usart.c ****     }
 445              		.loc 1 106 9 is_stmt 1 view .LVU128
 446 0042 0122     		movs	r2, #1
 447 0044 1F49     		ldr	r1, .L38+4
 448 0046 2046     		mov	r0, r4
 449 0048 FFF7FEFF 		bl	HAL_UART_Receive_IT
 450              	.LVL31:
ARM GAS  C:\Users\Lamp\AppData\Local\Temp\ccGE2Sfq.s 			page 14


 451 004c E0E7     		b	.L28
 452              	.LVL32:
 453              	.L36:
  78:Core/Src/Drivers/Src/usart.c ****                 recived_message.message[recived_message.length] = byte_data;
 454              		.loc 1 78 13 view .LVU129
  78:Core/Src/Drivers/Src/usart.c ****                 recived_message.message[recived_message.length] = byte_data;
 455              		.loc 1 78 15 is_stmt 0 view .LVU130
 456 004e 532B     		cmp	r3, #83
 457 0050 0ED0     		beq	.L30
  78:Core/Src/Drivers/Src/usart.c ****                 recived_message.message[recived_message.length] = byte_data;
 458              		.loc 1 78 33 discriminator 1 view .LVU131
 459 0052 0A2B     		cmp	r3, #10
 460 0054 0CD0     		beq	.L30
  79:Core/Src/Drivers/Src/usart.c ****                 recived_message.length++;
 461              		.loc 1 79 17 is_stmt 1 view .LVU132
  79:Core/Src/Drivers/Src/usart.c ****                 recived_message.length++;
 462              		.loc 1 79 56 is_stmt 0 view .LVU133
 463 0056 1E49     		ldr	r1, .L38+16
 464 0058 CA79     		ldrb	r2, [r1, #7]	@ zero_extendqisi2
  79:Core/Src/Drivers/Src/usart.c ****                 recived_message.length++;
 465              		.loc 1 79 65 view .LVU134
 466 005a 8B54     		strb	r3, [r1, r2]
  80:Core/Src/Drivers/Src/usart.c ****                 if(recived_message.length > max_length) {
 467              		.loc 1 80 17 is_stmt 1 view .LVU135
  80:Core/Src/Drivers/Src/usart.c ****                 if(recived_message.length > max_length) {
 468              		.loc 1 80 39 is_stmt 0 view .LVU136
 469 005c 531C     		adds	r3, r2, #1
 470 005e DBB2     		uxtb	r3, r3
 471 0060 CB71     		strb	r3, [r1, #7]
  81:Core/Src/Drivers/Src/usart.c ****                     recived_message.length = 0;
 472              		.loc 1 81 17 is_stmt 1 view .LVU137
  81:Core/Src/Drivers/Src/usart.c ****                     recived_message.length = 0;
 473              		.loc 1 81 19 is_stmt 0 view .LVU138
 474 0062 042B     		cmp	r3, #4
 475 0064 EDD9     		bls	.L31
  82:Core/Src/Drivers/Src/usart.c ****                     is_data_comming = 0;
 476              		.loc 1 82 21 is_stmt 1 view .LVU139
  82:Core/Src/Drivers/Src/usart.c ****                     is_data_comming = 0;
 477              		.loc 1 82 44 is_stmt 0 view .LVU140
 478 0066 0023     		movs	r3, #0
 479 0068 CB71     		strb	r3, [r1, #7]
  83:Core/Src/Drivers/Src/usart.c ****                 }
 480              		.loc 1 83 21 is_stmt 1 view .LVU141
  83:Core/Src/Drivers/Src/usart.c ****                 }
 481              		.loc 1 83 37 is_stmt 0 view .LVU142
 482 006a 184A     		ldr	r2, .L38+12
 483 006c 1370     		strb	r3, [r2]
 484 006e E8E7     		b	.L31
 485              	.L30:
  86:Core/Src/Drivers/Src/usart.c ****                 static PWC pulse_width_command;
 486              		.loc 1 86 18 is_stmt 1 view .LVU143
  86:Core/Src/Drivers/Src/usart.c ****                 static PWC pulse_width_command;
 487              		.loc 1 86 20 is_stmt 0 view .LVU144
 488 0070 0A2B     		cmp	r3, #10
 489 0072 E6D1     		bne	.L31
 490              	.LBB7:
  87:Core/Src/Drivers/Src/usart.c ****                 static int16_t d;
ARM GAS  C:\Users\Lamp\AppData\Local\Temp\ccGE2Sfq.s 			page 15


 491              		.loc 1 87 17 is_stmt 1 view .LVU145
  88:Core/Src/Drivers/Src/usart.c ****                 static const Event pwc_evt = {PWC_TRIGGER_SIG};
 492              		.loc 1 88 17 view .LVU146
  89:Core/Src/Drivers/Src/usart.c ****                 d = ExtractMessage(&recived_message);
 493              		.loc 1 89 17 view .LVU147
  90:Core/Src/Drivers/Src/usart.c ****                 pulse_width_command.d = d;
 494              		.loc 1 90 17 view .LVU148
  90:Core/Src/Drivers/Src/usart.c ****                 pulse_width_command.d = d;
 495              		.loc 1 90 21 is_stmt 0 view .LVU149
 496 0074 164D     		ldr	r5, .L38+16
 497 0076 2846     		mov	r0, r5
 498              	.LVL33:
  90:Core/Src/Drivers/Src/usart.c ****                 pulse_width_command.d = d;
 499              		.loc 1 90 21 view .LVU150
 500 0078 FFF7FEFF 		bl	ExtractMessage
 501              	.LVL34:
  90:Core/Src/Drivers/Src/usart.c ****                 pulse_width_command.d = d;
 502              		.loc 1 90 19 discriminator 1 view .LVU151
 503 007c 154B     		ldr	r3, .L38+20
 504 007e 1880     		strh	r0, [r3]	@ movhi
  91:Core/Src/Drivers/Src/usart.c ****                 xQueueOverwriteFromISR(motor->pwc_sub, &pulse_width_command, &xHigherPriorityTaskWo
 505              		.loc 1 91 17 is_stmt 1 view .LVU152
  91:Core/Src/Drivers/Src/usart.c ****                 xQueueOverwriteFromISR(motor->pwc_sub, &pulse_width_command, &xHigherPriorityTaskWo
 506              		.loc 1 91 39 is_stmt 0 view .LVU153
 507 0080 1549     		ldr	r1, .L38+24
 508 0082 0880     		strh	r0, [r1]	@ movhi
  92:Core/Src/Drivers/Src/usart.c ****                 AO_Motor->postFromISR(AO_Motor, &pwc_evt, &xHigherPriorityTaskWoken);
 509              		.loc 1 92 17 is_stmt 1 view .LVU154
 510 0084 154B     		ldr	r3, .L38+28
 511 0086 1868     		ldr	r0, [r3]
 512 0088 0223     		movs	r3, #2
 513 008a 01AA     		add	r2, sp, #4
 514 008c D0F8CC00 		ldr	r0, [r0, #204]
 515 0090 FFF7FEFF 		bl	xQueueGenericSendFromISR
 516              	.LVL35:
  93:Core/Src/Drivers/Src/usart.c ****                 recived_message.length = 0;
 517              		.loc 1 93 17 view .LVU155
  93:Core/Src/Drivers/Src/usart.c ****                 recived_message.length = 0;
 518              		.loc 1 93 25 is_stmt 0 view .LVU156
 519 0094 124B     		ldr	r3, .L38+32
 520 0096 1868     		ldr	r0, [r3]
 521 0098 D0F8C830 		ldr	r3, [r0, #200]
  93:Core/Src/Drivers/Src/usart.c ****                 recived_message.length = 0;
 522              		.loc 1 93 17 view .LVU157
 523 009c 01AA     		add	r2, sp, #4
 524 009e 1149     		ldr	r1, .L38+36
 525 00a0 9847     		blx	r3
 526              	.LVL36:
  94:Core/Src/Drivers/Src/usart.c ****                 is_data_comming = 0;
 527              		.loc 1 94 17 is_stmt 1 view .LVU158
  94:Core/Src/Drivers/Src/usart.c ****                 is_data_comming = 0;
 528              		.loc 1 94 40 is_stmt 0 view .LVU159
 529 00a2 0023     		movs	r3, #0
 530 00a4 EB71     		strb	r3, [r5, #7]
  95:Core/Src/Drivers/Src/usart.c ****             }
 531              		.loc 1 95 17 is_stmt 1 view .LVU160
  95:Core/Src/Drivers/Src/usart.c ****             }
ARM GAS  C:\Users\Lamp\AppData\Local\Temp\ccGE2Sfq.s 			page 16


 532              		.loc 1 95 33 is_stmt 0 view .LVU161
 533 00a6 094A     		ldr	r2, .L38+12
 534 00a8 1370     		strb	r3, [r2]
 535 00aa CAE7     		b	.L31
 536              	.LVL37:
 537              	.L37:
  95:Core/Src/Drivers/Src/usart.c ****             }
 538              		.loc 1 95 33 view .LVU162
 539              	.LBE7:
 100:Core/Src/Drivers/Src/usart.c ****                 is_data_comming = 1;
 540              		.loc 1 100 17 is_stmt 1 view .LVU163
 100:Core/Src/Drivers/Src/usart.c ****                 is_data_comming = 1;
 541              		.loc 1 100 35 is_stmt 0 view .LVU164
 542 00ac 084B     		ldr	r3, .L38+16
 543 00ae DB79     		ldrb	r3, [r3, #7]	@ zero_extendqisi2
 100:Core/Src/Drivers/Src/usart.c ****                 is_data_comming = 1;
 544              		.loc 1 100 19 view .LVU165
 545 00b0 13B1     		cbz	r3, .L32
 100:Core/Src/Drivers/Src/usart.c ****                 is_data_comming = 1;
 546              		.loc 1 100 49 is_stmt 1 discriminator 1 view .LVU166
 100:Core/Src/Drivers/Src/usart.c ****                 is_data_comming = 1;
 547              		.loc 1 100 72 is_stmt 0 discriminator 1 view .LVU167
 548 00b2 074B     		ldr	r3, .L38+16
 549 00b4 0022     		movs	r2, #0
 550 00b6 DA71     		strb	r2, [r3, #7]
 551              	.L32:
 101:Core/Src/Drivers/Src/usart.c ****             }          
 552              		.loc 1 101 17 is_stmt 1 view .LVU168
 101:Core/Src/Drivers/Src/usart.c ****             }          
 553              		.loc 1 101 33 is_stmt 0 view .LVU169
 554 00b8 044B     		ldr	r3, .L38+12
 555 00ba 0122     		movs	r2, #1
 556 00bc 1A70     		strb	r2, [r3]
 557 00be C0E7     		b	.L31
 558              	.L39:
 559              		.align	2
 560              	.L38:
 561 00c0 00480040 		.word	1073760256
 562 00c4 00000000 		.word	rx_byte_data
 563 00c8 00000000 		.word	byte_data.5
 564 00cc 00000000 		.word	is_data_comming.4
 565 00d0 00000000 		.word	recived_message.3
 566 00d4 00000000 		.word	d.2
 567 00d8 00000000 		.word	pulse_width_command.1
 568 00dc 00000000 		.word	motor
 569 00e0 00000000 		.word	AO_Motor
 570 00e4 00000000 		.word	pwc_evt.0
 571              	.LBE6:
 572              		.cfi_endproc
 573              	.LFE177:
 575              		.section	.text.Driver_USART_Init,"ax",%progbits
 576              		.align	1
 577              		.global	Driver_USART_Init
 578              		.syntax unified
 579              		.thumb
 580              		.thumb_func
 582              	Driver_USART_Init:
ARM GAS  C:\Users\Lamp\AppData\Local\Temp\ccGE2Sfq.s 			page 17


 583              	.LFB178:
 119:Core/Src/Drivers/Src/usart.c ****     huart2.Instance = USART2;
 584              		.loc 1 119 1 is_stmt 1 view -0
 585              		.cfi_startproc
 586              		@ args = 0, pretend = 0, frame = 0
 587              		@ frame_needed = 0, uses_anonymous_args = 0
 588 0000 10B5     		push	{r4, lr}
 589              	.LCFI10:
 590              		.cfi_def_cfa_offset 8
 591              		.cfi_offset 4, -8
 592              		.cfi_offset 14, -4
 120:Core/Src/Drivers/Src/usart.c ****     huart3.Instance = USART3;
 593              		.loc 1 120 5 view .LVU171
 120:Core/Src/Drivers/Src/usart.c ****     huart3.Instance = USART3;
 594              		.loc 1 120 21 is_stmt 0 view .LVU172
 595 0002 0648     		ldr	r0, .L42
 596 0004 064B     		ldr	r3, .L42+4
 597 0006 0360     		str	r3, [r0]
 121:Core/Src/Drivers/Src/usart.c ****     UART_Init(&huart2);
 598              		.loc 1 121 5 is_stmt 1 view .LVU173
 121:Core/Src/Drivers/Src/usart.c ****     UART_Init(&huart2);
 599              		.loc 1 121 21 is_stmt 0 view .LVU174
 600 0008 064C     		ldr	r4, .L42+8
 601 000a 03F58063 		add	r3, r3, #1024
 602 000e 2360     		str	r3, [r4]
 122:Core/Src/Drivers/Src/usart.c ****     UART_Init(&huart3);
 603              		.loc 1 122 5 is_stmt 1 view .LVU175
 604 0010 FFF7FEFF 		bl	UART_Init
 605              	.LVL38:
 123:Core/Src/Drivers/Src/usart.c **** }
 606              		.loc 1 123 5 view .LVU176
 607 0014 2046     		mov	r0, r4
 608 0016 FFF7FEFF 		bl	UART_Init
 609              	.LVL39:
 124:Core/Src/Drivers/Src/usart.c **** 
 610              		.loc 1 124 1 is_stmt 0 view .LVU177
 611 001a 10BD     		pop	{r4, pc}
 612              	.L43:
 613              		.align	2
 614              	.L42:
 615 001c 00000000 		.word	huart2
 616 0020 00440040 		.word	1073759232
 617 0024 00000000 		.word	huart3
 618              		.cfi_endproc
 619              	.LFE178:
 621              		.section	.text.HAL_UART_MspInit,"ax",%progbits
 622              		.align	1
 623              		.global	HAL_UART_MspInit
 624              		.syntax unified
 625              		.thumb
 626              		.thumb_func
 628              	HAL_UART_MspInit:
 629              	.LVL40:
 630              	.LFB179:
 127:Core/Src/Drivers/Src/usart.c ****     GPIO_InitTypeDef GPIO_InitStruct = {0};
 631              		.loc 1 127 1 is_stmt 1 view -0
 632              		.cfi_startproc
ARM GAS  C:\Users\Lamp\AppData\Local\Temp\ccGE2Sfq.s 			page 18


 633              		@ args = 0, pretend = 0, frame = 40
 634              		@ frame_needed = 0, uses_anonymous_args = 0
 127:Core/Src/Drivers/Src/usart.c ****     GPIO_InitTypeDef GPIO_InitStruct = {0};
 635              		.loc 1 127 1 is_stmt 0 view .LVU179
 636 0000 10B5     		push	{r4, lr}
 637              	.LCFI11:
 638              		.cfi_def_cfa_offset 8
 639              		.cfi_offset 4, -8
 640              		.cfi_offset 14, -4
 641 0002 8AB0     		sub	sp, sp, #40
 642              	.LCFI12:
 643              		.cfi_def_cfa_offset 48
 128:Core/Src/Drivers/Src/usart.c ****     if(huart->Instance==USART2)
 644              		.loc 1 128 5 is_stmt 1 view .LVU180
 128:Core/Src/Drivers/Src/usart.c ****     if(huart->Instance==USART2)
 645              		.loc 1 128 22 is_stmt 0 view .LVU181
 646 0004 0023     		movs	r3, #0
 647 0006 0593     		str	r3, [sp, #20]
 648 0008 0693     		str	r3, [sp, #24]
 649 000a 0793     		str	r3, [sp, #28]
 650 000c 0893     		str	r3, [sp, #32]
 651 000e 0993     		str	r3, [sp, #36]
 129:Core/Src/Drivers/Src/usart.c ****     {
 652              		.loc 1 129 5 is_stmt 1 view .LVU182
 129:Core/Src/Drivers/Src/usart.c ****     {
 653              		.loc 1 129 13 is_stmt 0 view .LVU183
 654 0010 0368     		ldr	r3, [r0]
 129:Core/Src/Drivers/Src/usart.c ****     {
 655              		.loc 1 129 7 view .LVU184
 656 0012 2F4A     		ldr	r2, .L50
 657 0014 9342     		cmp	r3, r2
 658 0016 04D0     		beq	.L48
 150:Core/Src/Drivers/Src/usart.c ****     {
 659              		.loc 1 150 10 is_stmt 1 view .LVU185
 150:Core/Src/Drivers/Src/usart.c ****     {
 660              		.loc 1 150 12 is_stmt 0 view .LVU186
 661 0018 2E4A     		ldr	r2, .L50+4
 662 001a 9342     		cmp	r3, r2
 663 001c 2CD0     		beq	.L49
 664              	.LVL41:
 665              	.L44:
 171:Core/Src/Drivers/Src/usart.c **** 
 666              		.loc 1 171 1 view .LVU187
 667 001e 0AB0     		add	sp, sp, #40
 668              	.LCFI13:
 669              		.cfi_remember_state
 670              		.cfi_def_cfa_offset 8
 671              		@ sp needed
 672 0020 10BD     		pop	{r4, pc}
 673              	.LVL42:
 674              	.L48:
 675              	.LCFI14:
 676              		.cfi_restore_state
 132:Core/Src/Drivers/Src/usart.c ****         __HAL_RCC_GPIOA_CLK_ENABLE();
 677              		.loc 1 132 9 is_stmt 1 view .LVU188
 678              	.LBB8:
 132:Core/Src/Drivers/Src/usart.c ****         __HAL_RCC_GPIOA_CLK_ENABLE();
ARM GAS  C:\Users\Lamp\AppData\Local\Temp\ccGE2Sfq.s 			page 19


 679              		.loc 1 132 9 view .LVU189
 680 0022 0024     		movs	r4, #0
 681 0024 0194     		str	r4, [sp, #4]
 132:Core/Src/Drivers/Src/usart.c ****         __HAL_RCC_GPIOA_CLK_ENABLE();
 682              		.loc 1 132 9 view .LVU190
 683 0026 2C4B     		ldr	r3, .L50+8
 684 0028 1A6C     		ldr	r2, [r3, #64]
 685 002a 42F40032 		orr	r2, r2, #131072
 686 002e 1A64     		str	r2, [r3, #64]
 132:Core/Src/Drivers/Src/usart.c ****         __HAL_RCC_GPIOA_CLK_ENABLE();
 687              		.loc 1 132 9 view .LVU191
 688 0030 1A6C     		ldr	r2, [r3, #64]
 689 0032 02F40032 		and	r2, r2, #131072
 690 0036 0192     		str	r2, [sp, #4]
 132:Core/Src/Drivers/Src/usart.c ****         __HAL_RCC_GPIOA_CLK_ENABLE();
 691              		.loc 1 132 9 view .LVU192
 692 0038 019A     		ldr	r2, [sp, #4]
 693              	.LBE8:
 132:Core/Src/Drivers/Src/usart.c ****         __HAL_RCC_GPIOA_CLK_ENABLE();
 694              		.loc 1 132 9 view .LVU193
 133:Core/Src/Drivers/Src/usart.c ****         
 695              		.loc 1 133 9 view .LVU194
 696              	.LBB9:
 133:Core/Src/Drivers/Src/usart.c ****         
 697              		.loc 1 133 9 view .LVU195
 698 003a 0294     		str	r4, [sp, #8]
 133:Core/Src/Drivers/Src/usart.c ****         
 699              		.loc 1 133 9 view .LVU196
 700 003c 1A6B     		ldr	r2, [r3, #48]
 701 003e 42F00102 		orr	r2, r2, #1
 702 0042 1A63     		str	r2, [r3, #48]
 133:Core/Src/Drivers/Src/usart.c ****         
 703              		.loc 1 133 9 view .LVU197
 704 0044 1B6B     		ldr	r3, [r3, #48]
 705 0046 03F00103 		and	r3, r3, #1
 706 004a 0293     		str	r3, [sp, #8]
 133:Core/Src/Drivers/Src/usart.c ****         
 707              		.loc 1 133 9 view .LVU198
 708 004c 029B     		ldr	r3, [sp, #8]
 709              	.LBE9:
 133:Core/Src/Drivers/Src/usart.c ****         
 710              		.loc 1 133 9 view .LVU199
 139:Core/Src/Drivers/Src/usart.c ****         GPIO_InitStruct.Mode = GPIO_MODE_AF_PP;
 711              		.loc 1 139 9 view .LVU200
 139:Core/Src/Drivers/Src/usart.c ****         GPIO_InitStruct.Mode = GPIO_MODE_AF_PP;
 712              		.loc 1 139 29 is_stmt 0 view .LVU201
 713 004e 0C23     		movs	r3, #12
 714 0050 0593     		str	r3, [sp, #20]
 140:Core/Src/Drivers/Src/usart.c ****         GPIO_InitStruct.Pull = GPIO_NOPULL;
 715              		.loc 1 140 9 is_stmt 1 view .LVU202
 140:Core/Src/Drivers/Src/usart.c ****         GPIO_InitStruct.Pull = GPIO_NOPULL;
 716              		.loc 1 140 30 is_stmt 0 view .LVU203
 717 0052 0223     		movs	r3, #2
 718 0054 0693     		str	r3, [sp, #24]
 141:Core/Src/Drivers/Src/usart.c ****         GPIO_InitStruct.Speed = GPIO_SPEED_FREQ_VERY_HIGH;
 719              		.loc 1 141 9 is_stmt 1 view .LVU204
 142:Core/Src/Drivers/Src/usart.c ****         GPIO_InitStruct.Alternate = GPIO_AF7_USART2;
ARM GAS  C:\Users\Lamp\AppData\Local\Temp\ccGE2Sfq.s 			page 20


 720              		.loc 1 142 9 view .LVU205
 142:Core/Src/Drivers/Src/usart.c ****         GPIO_InitStruct.Alternate = GPIO_AF7_USART2;
 721              		.loc 1 142 31 is_stmt 0 view .LVU206
 722 0056 0323     		movs	r3, #3
 723 0058 0893     		str	r3, [sp, #32]
 143:Core/Src/Drivers/Src/usart.c ****         HAL_GPIO_Init(GPIOA, &GPIO_InitStruct);
 724              		.loc 1 143 9 is_stmt 1 view .LVU207
 143:Core/Src/Drivers/Src/usart.c ****         HAL_GPIO_Init(GPIOA, &GPIO_InitStruct);
 725              		.loc 1 143 35 is_stmt 0 view .LVU208
 726 005a 0723     		movs	r3, #7
 727 005c 0993     		str	r3, [sp, #36]
 144:Core/Src/Drivers/Src/usart.c **** 
 728              		.loc 1 144 9 is_stmt 1 view .LVU209
 729 005e 05A9     		add	r1, sp, #20
 730 0060 1E48     		ldr	r0, .L50+12
 731              	.LVL43:
 144:Core/Src/Drivers/Src/usart.c **** 
 732              		.loc 1 144 9 is_stmt 0 view .LVU210
 733 0062 FFF7FEFF 		bl	HAL_GPIO_Init
 734              	.LVL44:
 147:Core/Src/Drivers/Src/usart.c ****         HAL_NVIC_EnableIRQ(USART2_IRQn);
 735              		.loc 1 147 9 is_stmt 1 view .LVU211
 736 0066 2246     		mov	r2, r4
 737 0068 0921     		movs	r1, #9
 738 006a 2620     		movs	r0, #38
 739 006c FFF7FEFF 		bl	HAL_NVIC_SetPriority
 740              	.LVL45:
 148:Core/Src/Drivers/Src/usart.c ****     }
 741              		.loc 1 148 9 view .LVU212
 742 0070 2620     		movs	r0, #38
 743 0072 FFF7FEFF 		bl	HAL_NVIC_EnableIRQ
 744              	.LVL46:
 745 0076 D2E7     		b	.L44
 746              	.LVL47:
 747              	.L49:
 153:Core/Src/Drivers/Src/usart.c ****         __HAL_RCC_GPIOB_CLK_ENABLE();
 748              		.loc 1 153 9 view .LVU213
 749              	.LBB10:
 153:Core/Src/Drivers/Src/usart.c ****         __HAL_RCC_GPIOB_CLK_ENABLE();
 750              		.loc 1 153 9 view .LVU214
 751 0078 0024     		movs	r4, #0
 752 007a 0394     		str	r4, [sp, #12]
 153:Core/Src/Drivers/Src/usart.c ****         __HAL_RCC_GPIOB_CLK_ENABLE();
 753              		.loc 1 153 9 view .LVU215
 754 007c 164B     		ldr	r3, .L50+8
 755 007e 1A6C     		ldr	r2, [r3, #64]
 756 0080 42F48022 		orr	r2, r2, #262144
 757 0084 1A64     		str	r2, [r3, #64]
 153:Core/Src/Drivers/Src/usart.c ****         __HAL_RCC_GPIOB_CLK_ENABLE();
 758              		.loc 1 153 9 view .LVU216
 759 0086 1A6C     		ldr	r2, [r3, #64]
 760 0088 02F48022 		and	r2, r2, #262144
 761 008c 0392     		str	r2, [sp, #12]
 153:Core/Src/Drivers/Src/usart.c ****         __HAL_RCC_GPIOB_CLK_ENABLE();
 762              		.loc 1 153 9 view .LVU217
 763 008e 039A     		ldr	r2, [sp, #12]
 764              	.LBE10:
ARM GAS  C:\Users\Lamp\AppData\Local\Temp\ccGE2Sfq.s 			page 21


 153:Core/Src/Drivers/Src/usart.c ****         __HAL_RCC_GPIOB_CLK_ENABLE();
 765              		.loc 1 153 9 view .LVU218
 154:Core/Src/Drivers/Src/usart.c **** 
 766              		.loc 1 154 9 view .LVU219
 767              	.LBB11:
 154:Core/Src/Drivers/Src/usart.c **** 
 768              		.loc 1 154 9 view .LVU220
 769 0090 0494     		str	r4, [sp, #16]
 154:Core/Src/Drivers/Src/usart.c **** 
 770              		.loc 1 154 9 view .LVU221
 771 0092 1A6B     		ldr	r2, [r3, #48]
 772 0094 42F00202 		orr	r2, r2, #2
 773 0098 1A63     		str	r2, [r3, #48]
 154:Core/Src/Drivers/Src/usart.c **** 
 774              		.loc 1 154 9 view .LVU222
 775 009a 1B6B     		ldr	r3, [r3, #48]
 776 009c 03F00203 		and	r3, r3, #2
 777 00a0 0493     		str	r3, [sp, #16]
 154:Core/Src/Drivers/Src/usart.c **** 
 778              		.loc 1 154 9 view .LVU223
 779 00a2 049B     		ldr	r3, [sp, #16]
 780              	.LBE11:
 154:Core/Src/Drivers/Src/usart.c **** 
 781              		.loc 1 154 9 view .LVU224
 160:Core/Src/Drivers/Src/usart.c ****         GPIO_InitStruct.Mode = GPIO_MODE_AF_PP;
 782              		.loc 1 160 9 view .LVU225
 160:Core/Src/Drivers/Src/usart.c ****         GPIO_InitStruct.Mode = GPIO_MODE_AF_PP;
 783              		.loc 1 160 29 is_stmt 0 view .LVU226
 784 00a4 4FF44063 		mov	r3, #3072
 785 00a8 0593     		str	r3, [sp, #20]
 161:Core/Src/Drivers/Src/usart.c ****         GPIO_InitStruct.Pull = GPIO_NOPULL;
 786              		.loc 1 161 9 is_stmt 1 view .LVU227
 161:Core/Src/Drivers/Src/usart.c ****         GPIO_InitStruct.Pull = GPIO_NOPULL;
 787              		.loc 1 161 30 is_stmt 0 view .LVU228
 788 00aa 0223     		movs	r3, #2
 789 00ac 0693     		str	r3, [sp, #24]
 162:Core/Src/Drivers/Src/usart.c ****         GPIO_InitStruct.Speed = GPIO_SPEED_FREQ_VERY_HIGH;
 790              		.loc 1 162 9 is_stmt 1 view .LVU229
 163:Core/Src/Drivers/Src/usart.c ****         GPIO_InitStruct.Alternate = GPIO_AF7_USART3;
 791              		.loc 1 163 9 view .LVU230
 163:Core/Src/Drivers/Src/usart.c ****         GPIO_InitStruct.Alternate = GPIO_AF7_USART3;
 792              		.loc 1 163 31 is_stmt 0 view .LVU231
 793 00ae 0323     		movs	r3, #3
 794 00b0 0893     		str	r3, [sp, #32]
 164:Core/Src/Drivers/Src/usart.c ****         HAL_GPIO_Init(GPIOB, &GPIO_InitStruct);
 795              		.loc 1 164 9 is_stmt 1 view .LVU232
 164:Core/Src/Drivers/Src/usart.c ****         HAL_GPIO_Init(GPIOB, &GPIO_InitStruct);
 796              		.loc 1 164 35 is_stmt 0 view .LVU233
 797 00b2 0723     		movs	r3, #7
 798 00b4 0993     		str	r3, [sp, #36]
 165:Core/Src/Drivers/Src/usart.c **** 
 799              		.loc 1 165 9 is_stmt 1 view .LVU234
 800 00b6 05A9     		add	r1, sp, #20
 801 00b8 0948     		ldr	r0, .L50+16
 802              	.LVL48:
 165:Core/Src/Drivers/Src/usart.c **** 
 803              		.loc 1 165 9 is_stmt 0 view .LVU235
ARM GAS  C:\Users\Lamp\AppData\Local\Temp\ccGE2Sfq.s 			page 22


 804 00ba FFF7FEFF 		bl	HAL_GPIO_Init
 805              	.LVL49:
 168:Core/Src/Drivers/Src/usart.c ****         HAL_NVIC_EnableIRQ(USART3_IRQn);
 806              		.loc 1 168 9 is_stmt 1 view .LVU236
 807 00be 2246     		mov	r2, r4
 808 00c0 0A21     		movs	r1, #10
 809 00c2 2720     		movs	r0, #39
 810 00c4 FFF7FEFF 		bl	HAL_NVIC_SetPriority
 811              	.LVL50:
 169:Core/Src/Drivers/Src/usart.c ****     }
 812              		.loc 1 169 9 view .LVU237
 813 00c8 2720     		movs	r0, #39
 814 00ca FFF7FEFF 		bl	HAL_NVIC_EnableIRQ
 815              	.LVL51:
 171:Core/Src/Drivers/Src/usart.c **** 
 816              		.loc 1 171 1 is_stmt 0 view .LVU238
 817 00ce A6E7     		b	.L44
 818              	.L51:
 819              		.align	2
 820              	.L50:
 821 00d0 00440040 		.word	1073759232
 822 00d4 00480040 		.word	1073760256
 823 00d8 00380240 		.word	1073887232
 824 00dc 00000240 		.word	1073872896
 825 00e0 00040240 		.word	1073873920
 826              		.cfi_endproc
 827              	.LFE179:
 829              		.section	.text.USART2_IRQHandler,"ax",%progbits
 830              		.align	1
 831              		.global	USART2_IRQHandler
 832              		.syntax unified
 833              		.thumb
 834              		.thumb_func
 836              	USART2_IRQHandler:
 837              	.LFB181:
 206:Core/Src/Drivers/Src/usart.c **** 
 207:Core/Src/Drivers/Src/usart.c **** /**
 208:Core/Src/Drivers/Src/usart.c ****   * @brief This function handles USART2 global interrupt.
 209:Core/Src/Drivers/Src/usart.c ****   */
 210:Core/Src/Drivers/Src/usart.c **** void USART2_IRQHandler(void)
 211:Core/Src/Drivers/Src/usart.c **** {
 838              		.loc 1 211 1 is_stmt 1 view -0
 839              		.cfi_startproc
 840              		@ args = 0, pretend = 0, frame = 0
 841              		@ frame_needed = 0, uses_anonymous_args = 0
 842 0000 08B5     		push	{r3, lr}
 843              	.LCFI15:
 844              		.cfi_def_cfa_offset 8
 845              		.cfi_offset 3, -8
 846              		.cfi_offset 14, -4
 212:Core/Src/Drivers/Src/usart.c ****     HAL_UART_IRQHandler(&huart2);
 847              		.loc 1 212 5 view .LVU240
 848 0002 0248     		ldr	r0, .L54
 849 0004 FFF7FEFF 		bl	HAL_UART_IRQHandler
 850              	.LVL52:
 213:Core/Src/Drivers/Src/usart.c **** }
 851              		.loc 1 213 1 is_stmt 0 view .LVU241
ARM GAS  C:\Users\Lamp\AppData\Local\Temp\ccGE2Sfq.s 			page 23


 852 0008 08BD     		pop	{r3, pc}
 853              	.L55:
 854 000a 00BF     		.align	2
 855              	.L54:
 856 000c 00000000 		.word	huart2
 857              		.cfi_endproc
 858              	.LFE181:
 860              		.section	.text.USART3_IRQHandler,"ax",%progbits
 861              		.align	1
 862              		.global	USART3_IRQHandler
 863              		.syntax unified
 864              		.thumb
 865              		.thumb_func
 867              	USART3_IRQHandler:
 868              	.LFB182:
 214:Core/Src/Drivers/Src/usart.c **** 
 215:Core/Src/Drivers/Src/usart.c **** /**
 216:Core/Src/Drivers/Src/usart.c ****   * @brief This function handles USART3 global interrupt.
 217:Core/Src/Drivers/Src/usart.c ****   */
 218:Core/Src/Drivers/Src/usart.c **** void USART3_IRQHandler(void)
 219:Core/Src/Drivers/Src/usart.c **** {
 869              		.loc 1 219 1 is_stmt 1 view -0
 870              		.cfi_startproc
 871              		@ args = 0, pretend = 0, frame = 0
 872              		@ frame_needed = 0, uses_anonymous_args = 0
 873 0000 08B5     		push	{r3, lr}
 874              	.LCFI16:
 875              		.cfi_def_cfa_offset 8
 876              		.cfi_offset 3, -8
 877              		.cfi_offset 14, -4
 220:Core/Src/Drivers/Src/usart.c ****     HAL_UART_IRQHandler(&huart3);
 878              		.loc 1 220 5 view .LVU243
 879 0002 0248     		ldr	r0, .L58
 880 0004 FFF7FEFF 		bl	HAL_UART_IRQHandler
 881              	.LVL53:
 221:Core/Src/Drivers/Src/usart.c **** }
 882              		.loc 1 221 1 is_stmt 0 view .LVU244
 883 0008 08BD     		pop	{r3, pc}
 884              	.L59:
 885 000a 00BF     		.align	2
 886              	.L58:
 887 000c 00000000 		.word	huart3
 888              		.cfi_endproc
 889              	.LFE182:
 891              		.section	.text.SendBuffer,"ax",%progbits
 892              		.align	1
 893              		.global	SendBuffer
 894              		.syntax unified
 895              		.thumb
 896              		.thumb_func
 898              	SendBuffer:
 899              	.LVL54:
 900              	.LFB183:
 222:Core/Src/Drivers/Src/usart.c **** 
 223:Core/Src/Drivers/Src/usart.c **** void SendBuffer(UART_HandleTypeDef *huart, char* buffer) {
 901              		.loc 1 223 58 is_stmt 1 view -0
 902              		.cfi_startproc
ARM GAS  C:\Users\Lamp\AppData\Local\Temp\ccGE2Sfq.s 			page 24


 903              		@ args = 0, pretend = 0, frame = 0
 904              		@ frame_needed = 0, uses_anonymous_args = 0
 905              		.loc 1 223 58 is_stmt 0 view .LVU246
 906 0000 38B5     		push	{r3, r4, r5, lr}
 907              	.LCFI17:
 908              		.cfi_def_cfa_offset 16
 909              		.cfi_offset 3, -16
 910              		.cfi_offset 4, -12
 911              		.cfi_offset 5, -8
 912              		.cfi_offset 14, -4
 913 0002 0546     		mov	r5, r0
 914 0004 0C46     		mov	r4, r1
 224:Core/Src/Drivers/Src/usart.c ****     uint64_t length = strlen(buffer);
 915              		.loc 1 224 5 is_stmt 1 view .LVU247
 916              		.loc 1 224 23 is_stmt 0 view .LVU248
 917 0006 0846     		mov	r0, r1
 918              	.LVL55:
 919              		.loc 1 224 23 view .LVU249
 920 0008 FFF7FEFF 		bl	strlen
 921              	.LVL56:
 225:Core/Src/Drivers/Src/usart.c ****     HAL_UART_Transmit_IT(huart, (uint8_t*) buffer, length);
 922              		.loc 1 225 5 is_stmt 1 view .LVU250
 923 000c 82B2     		uxth	r2, r0
 924 000e 2146     		mov	r1, r4
 925 0010 2846     		mov	r0, r5
 926              	.LVL57:
 927              		.loc 1 225 5 is_stmt 0 view .LVU251
 928 0012 FFF7FEFF 		bl	HAL_UART_Transmit_IT
 929              	.LVL58:
 226:Core/Src/Drivers/Src/usart.c **** }
 930              		.loc 1 226 1 view .LVU252
 931 0016 38BD     		pop	{r3, r4, r5, pc}
 932              		.loc 1 226 1 view .LVU253
 933              		.cfi_endproc
 934              	.LFE183:
 936              		.section	.rodata.pwc_evt.0,"a"
 937              		.align	2
 940              	pwc_evt.0:
 941 0000 0300     		.short	3
 942              		.section	.bss.pulse_width_command.1,"aw",%nobits
 943              		.align	2
 946              	pulse_width_command.1:
 947 0000 0000     		.space	2
 948              		.section	.bss.d.2,"aw",%nobits
 949              		.align	1
 952              	d.2:
 953 0000 0000     		.space	2
 954              		.section	.bss.recived_message.3,"aw",%nobits
 955              		.align	2
 958              	recived_message.3:
 959 0000 00000000 		.space	8
 959      00000000 
 960              		.section	.bss.is_data_comming.4,"aw",%nobits
 963              	is_data_comming.4:
 964 0000 00       		.space	1
 965              		.section	.bss.byte_data.5,"aw",%nobits
 968              	byte_data.5:
ARM GAS  C:\Users\Lamp\AppData\Local\Temp\ccGE2Sfq.s 			page 25


 969 0000 00       		.space	1
 970              		.section	.rodata.sensor_event.6,"a"
 971              		.align	2
 974              	sensor_event.6:
 975 0000 0400     		.short	4
 976              		.section	.rodata.motor_sended_event.7,"a"
 977              		.align	2
 980              	motor_sended_event.7:
 981 0000 0400     		.short	4
 982              		.section	.rodata.TEN_POWER,"a"
 983              		.align	2
 986              	TEN_POWER:
 987 0000 01000000 		.word	1
 988 0004 0A000000 		.word	10
 989 0008 64000000 		.word	100
 990 000c E8030000 		.word	1000
 991              		.global	huart3
 992              		.section	.bss.huart3,"aw",%nobits
 993              		.align	2
 996              	huart3:
 997 0000 00000000 		.space	72
 997      00000000 
 997      00000000 
 997      00000000 
 997      00000000 
 998              		.global	huart2
 999              		.section	.bss.huart2,"aw",%nobits
 1000              		.align	2
 1003              	huart2:
 1004 0000 00000000 		.space	72
 1004      00000000 
 1004      00000000 
 1004      00000000 
 1004      00000000 
 1005              		.text
 1006              	.Letext0:
 1007              		.file 2 "Drivers/CMSIS/Device/ST/STM32F4xx/Include/stm32f407xx.h"
 1008              		.file 3 "C:/ARM GNU Toolchain/arm-none-eabi/include/machine/_default_types.h"
 1009              		.file 4 "C:/ARM GNU Toolchain/arm-none-eabi/include/sys/_stdint.h"
 1010              		.file 5 "C:/ARM GNU Toolchain/lib/gcc/arm-none-eabi/13.3.1/include/stddef.h"
 1011              		.file 6 "Drivers/STM32F4xx_HAL_Driver/Inc/stm32f4xx_hal_def.h"
 1012              		.file 7 "Drivers/STM32F4xx_HAL_Driver/Inc/stm32f4xx_hal_gpio.h"
 1013              		.file 8 "Drivers/STM32F4xx_HAL_Driver/Inc/stm32f4xx_hal_dma.h"
 1014              		.file 9 "Drivers/STM32F4xx_HAL_Driver/Inc/stm32f4xx_hal_uart.h"
 1015              		.file 10 "Core/Src/Middleware/Topic.h"
 1016              		.file 11 "ThirdParty/FreeRTOS/portable/GCC/ARM_CM4F/portmacro.h"
 1017              		.file 12 "ThirdParty/FreeRTOS/include/FreeRTOS.h"
 1018              		.file 13 "ThirdParty/FreeRTOS/include/task.h"
 1019              		.file 14 "ThirdParty/FreeRTOS/include/queue.h"
 1020              		.file 15 "Core/Src/Middleware/Active_Object.h"
 1021              		.file 16 "Core/Src/Application/Inc/Motor.h"
 1022              		.file 17 "C:/ARM GNU Toolchain/arm-none-eabi/include/string.h"
 1023              		.file 18 "Drivers/STM32F4xx_HAL_Driver/Inc/stm32f4xx_hal_cortex.h"
 1024              		.file 19 "Core/Src/Application/Inc/Computer.h"
ARM GAS  C:\Users\Lamp\AppData\Local\Temp\ccGE2Sfq.s 			page 26

